00000000  488B7708          mov rsi,[rdi+0x8]
00000004  803E00            cmp byte [rsi],0x0
00000007  0F8410430000      jz near 0x431d
0000000D  4883C606          add rsi,byte +0x6
00000011  803E00            cmp byte [rsi],0x0
00000014  741A              jz 0x30
00000016  4883C607          add rsi,byte +0x7
0000001A  803E00            cmp byte [rsi],0x0
0000001D  7408              jz 0x27
0000001F  802E01            sub byte [rsi],0x1
00000022  803E00            cmp byte [rsi],0x0
00000025  75F8              jnz 0x1f
00000027  4883C602          add rsi,byte +0x2
0000002B  803E00            cmp byte [rsi],0x0
0000002E  75E6              jnz 0x16
00000030  4883EE09          sub rsi,byte +0x9
00000034  803E00            cmp byte [rsi],0x0
00000037  7409              jz 0x42
00000039  4883EE09          sub rsi,byte +0x9
0000003D  803E00            cmp byte [rsi],0x0
00000040  75F7              jnz 0x39
00000042  4883C607          add rsi,byte +0x7
00000046  803E00            cmp byte [rsi],0x0
00000049  7408              jz 0x53
0000004B  802E01            sub byte [rsi],0x1
0000004E  803E00            cmp byte [rsi],0x0
00000051  75F8              jnz 0x4b
00000053  800601            add byte [rsi],0x1
00000056  4883EE06          sub rsi,byte +0x6
0000005A  800604            add byte [rsi],0x4
0000005D  803E00            cmp byte [rsi],0x0
00000060  7424              jz 0x86
00000062  802E01            sub byte [rsi],0x1
00000065  803E00            cmp byte [rsi],0x0
00000068  7413              jz 0x7d
0000006A  802E01            sub byte [rsi],0x1
0000006D  4883C609          add rsi,byte +0x9
00000071  800601            add byte [rsi],0x1
00000074  4883EE09          sub rsi,byte +0x9
00000078  803E00            cmp byte [rsi],0x0
0000007B  75ED              jnz 0x6a
0000007D  4883C609          add rsi,byte +0x9
00000081  803E00            cmp byte [rsi],0x0
00000084  75DC              jnz 0x62
00000086  4883C606          add rsi,byte +0x6
0000008A  800601            add byte [rsi],0x1
0000008D  4883EE06          sub rsi,byte +0x6
00000091  800607            add byte [rsi],0x7
00000094  803E00            cmp byte [rsi],0x0
00000097  7424              jz 0xbd
00000099  802E01            sub byte [rsi],0x1
0000009C  803E00            cmp byte [rsi],0x0
0000009F  7413              jz 0xb4
000000A1  802E01            sub byte [rsi],0x1
000000A4  4883C609          add rsi,byte +0x9
000000A8  800601            add byte [rsi],0x1
000000AB  4883EE09          sub rsi,byte +0x9
000000AF  803E00            cmp byte [rsi],0x0
000000B2  75ED              jnz 0xa1
000000B4  4883C609          add rsi,byte +0x9
000000B8  803E00            cmp byte [rsi],0x0
000000BB  75DC              jnz 0x99
000000BD  4883C606          add rsi,byte +0x6
000000C1  800601            add byte [rsi],0x1
000000C4  4883EE10          sub rsi,byte +0x10
000000C8  803E00            cmp byte [rsi],0x0
000000CB  7409              jz 0xd6
000000CD  4883EE09          sub rsi,byte +0x9
000000D1  803E00            cmp byte [rsi],0x0
000000D4  75F7              jnz 0xcd
000000D6  4883C603          add rsi,byte +0x3
000000DA  803E00            cmp byte [rsi],0x0
000000DD  0F84743B0000      jz near 0x3c57
000000E3  803E00            cmp byte [rsi],0x0
000000E6  7408              jz 0xf0
000000E8  802E01            sub byte [rsi],0x1
000000EB  803E00            cmp byte [rsi],0x0
000000EE  75F8              jnz 0xe8
000000F0  4883C606          add rsi,byte +0x6
000000F4  803E00            cmp byte [rsi],0x0
000000F7  744F              jz 0x148
000000F9  4883C607          add rsi,byte +0x7
000000FD  803E00            cmp byte [rsi],0x0
00000100  7413              jz 0x115
00000102  802E01            sub byte [rsi],0x1
00000105  4883EE06          sub rsi,byte +0x6
00000109  800601            add byte [rsi],0x1
0000010C  4883C606          add rsi,byte +0x6
00000110  803E00            cmp byte [rsi],0x0
00000113  75ED              jnz 0x102
00000115  4883EE06          sub rsi,byte +0x6
00000119  803E00            cmp byte [rsi],0x0
0000011C  7421              jz 0x13f
0000011E  802E01            sub byte [rsi],0x1
00000121  4883C606          add rsi,byte +0x6
00000125  800601            add byte [rsi],0x1
00000128  4883EE02          sub rsi,byte +0x2
0000012C  800601            add byte [rsi],0x1
0000012F  4883EE03          sub rsi,byte +0x3
00000133  800601            add byte [rsi],0x1
00000136  4883EE01          sub rsi,byte +0x1
0000013A  803E00            cmp byte [rsi],0x0
0000013D  75DF              jnz 0x11e
0000013F  4883C608          add rsi,byte +0x8
00000143  803E00            cmp byte [rsi],0x0
00000146  75B1              jnz 0xf9
00000148  4883EE09          sub rsi,byte +0x9
0000014C  803E00            cmp byte [rsi],0x0
0000014F  7409              jz 0x15a
00000151  4883EE09          sub rsi,byte +0x9
00000155  803E00            cmp byte [rsi],0x0
00000158  75F7              jnz 0x151
0000015A  4883C609          add rsi,byte +0x9
0000015E  803E00            cmp byte [rsi],0x0
00000161  744F              jz 0x1b2
00000163  4883C608          add rsi,byte +0x8
00000167  803E00            cmp byte [rsi],0x0
0000016A  7413              jz 0x17f
0000016C  802E01            sub byte [rsi],0x1
0000016F  4883EE07          sub rsi,byte +0x7
00000173  800601            add byte [rsi],0x1
00000176  4883C607          add rsi,byte +0x7
0000017A  803E00            cmp byte [rsi],0x0
0000017D  75ED              jnz 0x16c
0000017F  4883EE07          sub rsi,byte +0x7
00000183  803E00            cmp byte [rsi],0x0
00000186  7421              jz 0x1a9
00000188  802E01            sub byte [rsi],0x1
0000018B  4883C607          add rsi,byte +0x7
0000018F  800601            add byte [rsi],0x1
00000192  4883EE02          sub rsi,byte +0x2
00000196  800601            add byte [rsi],0x1
00000199  4883EE03          sub rsi,byte +0x3
0000019D  800601            add byte [rsi],0x1
000001A0  4883EE02          sub rsi,byte +0x2
000001A4  803E00            cmp byte [rsi],0x0
000001A7  75DF              jnz 0x188
000001A9  4883C608          add rsi,byte +0x8
000001AD  803E00            cmp byte [rsi],0x0
000001B0  75B1              jnz 0x163
000001B2  4883EE09          sub rsi,byte +0x9
000001B6  803E00            cmp byte [rsi],0x0
000001B9  7409              jz 0x1c4
000001BB  4883EE09          sub rsi,byte +0x9
000001BF  803E00            cmp byte [rsi],0x0
000001C2  75F7              jnz 0x1bb
000001C4  4883C607          add rsi,byte +0x7
000001C8  803E00            cmp byte [rsi],0x0
000001CB  7413              jz 0x1e0
000001CD  802E01            sub byte [rsi],0x1
000001D0  4883EE07          sub rsi,byte +0x7
000001D4  800601            add byte [rsi],0x1
000001D7  4883C607          add rsi,byte +0x7
000001DB  803E00            cmp byte [rsi],0x0
000001DE  75ED              jnz 0x1cd
000001E0  4883EE07          sub rsi,byte +0x7
000001E4  803E00            cmp byte [rsi],0x0
000001E7  741A              jz 0x203
000001E9  802E01            sub byte [rsi],0x1
000001EC  4883C607          add rsi,byte +0x7
000001F0  800601            add byte [rsi],0x1
000001F3  4883EE02          sub rsi,byte +0x2
000001F7  800601            add byte [rsi],0x1
000001FA  4883EE05          sub rsi,byte +0x5
000001FE  803E00            cmp byte [rsi],0x0
00000201  75E6              jnz 0x1e9
00000203  4883C609          add rsi,byte +0x9
00000207  80060F            add byte [rsi],0xf
0000020A  803E00            cmp byte [rsi],0x0
0000020D  0F84CC000000      jz near 0x2df
00000213  803E00            cmp byte [rsi],0x0
00000216  7409              jz 0x221
00000218  4883C609          add rsi,byte +0x9
0000021C  803E00            cmp byte [rsi],0x0
0000021F  75F7              jnz 0x218
00000221  800601            add byte [rsi],0x1
00000224  4883C601          add rsi,byte +0x1
00000228  803E00            cmp byte [rsi],0x0
0000022B  7408              jz 0x235
0000022D  802E01            sub byte [rsi],0x1
00000230  803E00            cmp byte [rsi],0x0
00000233  75F8              jnz 0x22d
00000235  4883C601          add rsi,byte +0x1
00000239  803E00            cmp byte [rsi],0x0
0000023C  7408              jz 0x246
0000023E  802E01            sub byte [rsi],0x1
00000241  803E00            cmp byte [rsi],0x0
00000244  75F8              jnz 0x23e
00000246  4883C601          add rsi,byte +0x1
0000024A  803E00            cmp byte [rsi],0x0
0000024D  7408              jz 0x257
0000024F  802E01            sub byte [rsi],0x1
00000252  803E00            cmp byte [rsi],0x0
00000255  75F8              jnz 0x24f
00000257  4883C601          add rsi,byte +0x1
0000025B  803E00            cmp byte [rsi],0x0
0000025E  7408              jz 0x268
00000260  802E01            sub byte [rsi],0x1
00000263  803E00            cmp byte [rsi],0x0
00000266  75F8              jnz 0x260
00000268  4883C601          add rsi,byte +0x1
0000026C  803E00            cmp byte [rsi],0x0
0000026F  7408              jz 0x279
00000271  802E01            sub byte [rsi],0x1
00000274  803E00            cmp byte [rsi],0x0
00000277  75F8              jnz 0x271
00000279  4883C601          add rsi,byte +0x1
0000027D  803E00            cmp byte [rsi],0x0
00000280  7408              jz 0x28a
00000282  802E01            sub byte [rsi],0x1
00000285  803E00            cmp byte [rsi],0x0
00000288  75F8              jnz 0x282
0000028A  4883C601          add rsi,byte +0x1
0000028E  803E00            cmp byte [rsi],0x0
00000291  7408              jz 0x29b
00000293  802E01            sub byte [rsi],0x1
00000296  803E00            cmp byte [rsi],0x0
00000299  75F8              jnz 0x293
0000029B  4883C601          add rsi,byte +0x1
0000029F  803E00            cmp byte [rsi],0x0
000002A2  7408              jz 0x2ac
000002A4  802E01            sub byte [rsi],0x1
000002A7  803E00            cmp byte [rsi],0x0
000002AA  75F8              jnz 0x2a4
000002AC  4883C601          add rsi,byte +0x1
000002B0  803E00            cmp byte [rsi],0x0
000002B3  7408              jz 0x2bd
000002B5  802E01            sub byte [rsi],0x1
000002B8  803E00            cmp byte [rsi],0x0
000002BB  75F8              jnz 0x2b5
000002BD  4883EE09          sub rsi,byte +0x9
000002C1  803E00            cmp byte [rsi],0x0
000002C4  7409              jz 0x2cf
000002C6  4883EE09          sub rsi,byte +0x9
000002CA  803E00            cmp byte [rsi],0x0
000002CD  75F7              jnz 0x2c6
000002CF  4883C609          add rsi,byte +0x9
000002D3  802E01            sub byte [rsi],0x1
000002D6  803E00            cmp byte [rsi],0x0
000002D9  0F8534FFFFFF      jnz near 0x213
000002DF  800601            add byte [rsi],0x1
000002E2  803E00            cmp byte [rsi],0x0
000002E5  7410              jz 0x2f7
000002E7  4883C601          add rsi,byte +0x1
000002EB  800601            add byte [rsi],0x1
000002EE  4883C608          add rsi,byte +0x8
000002F2  803E00            cmp byte [rsi],0x0
000002F5  75F0              jnz 0x2e7
000002F7  4883EE09          sub rsi,byte +0x9
000002FB  803E00            cmp byte [rsi],0x0
000002FE  7409              jz 0x309
00000300  4883EE09          sub rsi,byte +0x9
00000304  803E00            cmp byte [rsi],0x0
00000307  75F7              jnz 0x300
00000309  4883C609          add rsi,byte +0x9
0000030D  803E00            cmp byte [rsi],0x0
00000310  0F8418010000      jz near 0x42e
00000316  4883C601          add rsi,byte +0x1
0000031A  802E01            sub byte [rsi],0x1
0000031D  4883C604          add rsi,byte +0x4
00000321  803E00            cmp byte [rsi],0x0
00000324  7413              jz 0x339
00000326  802E01            sub byte [rsi],0x1
00000329  4883EE04          sub rsi,byte +0x4
0000032D  800601            add byte [rsi],0x1
00000330  4883C604          add rsi,byte +0x4
00000334  803E00            cmp byte [rsi],0x0
00000337  75ED              jnz 0x326
00000339  4883EE04          sub rsi,byte +0x4
0000033D  803E00            cmp byte [rsi],0x0
00000340  0F8478000000      jz near 0x3be
00000346  802E01            sub byte [rsi],0x1
00000349  4883C604          add rsi,byte +0x4
0000034D  800601            add byte [rsi],0x1
00000350  4883EE05          sub rsi,byte +0x5
00000354  803E00            cmp byte [rsi],0x0
00000357  744E              jz 0x3a7
00000359  802E01            sub byte [rsi],0x1
0000035C  4883C602          add rsi,byte +0x2
00000360  803E00            cmp byte [rsi],0x0
00000363  7413              jz 0x378
00000365  802E01            sub byte [rsi],0x1
00000368  4883EE02          sub rsi,byte +0x2
0000036C  800601            add byte [rsi],0x1
0000036F  4883C602          add rsi,byte +0x2
00000373  803E00            cmp byte [rsi],0x0
00000376  75ED              jnz 0x365
00000378  4883EE02          sub rsi,byte +0x2
0000037C  803E00            cmp byte [rsi],0x0
0000037F  741A              jz 0x39b
00000381  802E01            sub byte [rsi],0x1
00000384  4883C602          add rsi,byte +0x2
00000388  800601            add byte [rsi],0x1
0000038B  4883C602          add rsi,byte +0x2
0000038F  800601            add byte [rsi],0x1
00000392  4883EE04          sub rsi,byte +0x4
00000396  803E00            cmp byte [rsi],0x0
00000399  75E6              jnz 0x381
0000039B  800601            add byte [rsi],0x1
0000039E  4883C609          add rsi,byte +0x9
000003A2  803E00            cmp byte [rsi],0x0
000003A5  75B2              jnz 0x359
000003A7  4883EE08          sub rsi,byte +0x8
000003AB  803E00            cmp byte [rsi],0x0
000003AE  7409              jz 0x3b9
000003B0  4883EE09          sub rsi,byte +0x9
000003B4  803E00            cmp byte [rsi],0x0
000003B7  75F7              jnz 0x3b0
000003B9  803E00            cmp byte [rsi],0x0
000003BC  7588              jnz 0x346
000003BE  4883C609          add rsi,byte +0x9
000003C2  803E00            cmp byte [rsi],0x0
000003C5  7409              jz 0x3d0
000003C7  4883C609          add rsi,byte +0x9
000003CB  803E00            cmp byte [rsi],0x0
000003CE  75F7              jnz 0x3c7
000003D0  4883EE09          sub rsi,byte +0x9
000003D4  803E00            cmp byte [rsi],0x0
000003D7  7425              jz 0x3fe
000003D9  4883C601          add rsi,byte +0x1
000003DD  803E00            cmp byte [rsi],0x0
000003E0  7413              jz 0x3f5
000003E2  802E01            sub byte [rsi],0x1
000003E5  4883C609          add rsi,byte +0x9
000003E9  800601            add byte [rsi],0x1
000003EC  4883EE09          sub rsi,byte +0x9
000003F0  803E00            cmp byte [rsi],0x0
000003F3  75ED              jnz 0x3e2
000003F5  4883EE0A          sub rsi,byte +0xa
000003F9  803E00            cmp byte [rsi],0x0
000003FC  75DB              jnz 0x3d9
000003FE  4883C601          add rsi,byte +0x1
00000402  803E00            cmp byte [rsi],0x0
00000405  7413              jz 0x41a
00000407  802E01            sub byte [rsi],0x1
0000040A  4883C609          add rsi,byte +0x9
0000040E  800601            add byte [rsi],0x1
00000411  4883EE09          sub rsi,byte +0x9
00000415  803E00            cmp byte [rsi],0x0
00000418  75ED              jnz 0x407
0000041A  4883EE01          sub rsi,byte +0x1
0000041E  800601            add byte [rsi],0x1
00000421  4883C608          add rsi,byte +0x8
00000425  803E00            cmp byte [rsi],0x0
00000428  0F85E8FEFFFF      jnz near 0x316
0000042E  4883EE09          sub rsi,byte +0x9
00000432  803E00            cmp byte [rsi],0x0
00000435  0F84A7000000      jz near 0x4e2
0000043B  4883C601          add rsi,byte +0x1
0000043F  803E00            cmp byte [rsi],0x0
00000442  7408              jz 0x44c
00000444  802E01            sub byte [rsi],0x1
00000447  803E00            cmp byte [rsi],0x0
0000044A  75F8              jnz 0x444
0000044C  4883EE01          sub rsi,byte +0x1
00000450  802E01            sub byte [rsi],0x1
00000453  4883C604          add rsi,byte +0x4
00000457  803E00            cmp byte [rsi],0x0
0000045A  7456              jz 0x4b2
0000045C  802E01            sub byte [rsi],0x1
0000045F  4883EE04          sub rsi,byte +0x4
00000463  800601            add byte [rsi],0x1
00000466  4883C601          add rsi,byte +0x1
0000046A  803E00            cmp byte [rsi],0x0
0000046D  741E              jz 0x48d
0000046F  4883EE01          sub rsi,byte +0x1
00000473  802E01            sub byte [rsi],0x1
00000476  4883C601          add rsi,byte +0x1
0000047A  802E01            sub byte [rsi],0x1
0000047D  4883EE06          sub rsi,byte +0x6
00000481  800601            add byte [rsi],0x1
00000484  4883C606          add rsi,byte +0x6
00000488  803E00            cmp byte [rsi],0x0
0000048B  75E2              jnz 0x46f
0000048D  4883EE01          sub rsi,byte +0x1
00000491  803E00            cmp byte [rsi],0x0
00000494  7413              jz 0x4a9
00000496  802E01            sub byte [rsi],0x1
00000499  4883C601          add rsi,byte +0x1
0000049D  800601            add byte [rsi],0x1
000004A0  4883EE01          sub rsi,byte +0x1
000004A4  803E00            cmp byte [rsi],0x0
000004A7  75ED              jnz 0x496
000004A9  4883C604          add rsi,byte +0x4
000004AD  803E00            cmp byte [rsi],0x0
000004B0  75AA              jnz 0x45c
000004B2  4883EE03          sub rsi,byte +0x3
000004B6  803E00            cmp byte [rsi],0x0
000004B9  7413              jz 0x4ce
000004BB  802E01            sub byte [rsi],0x1
000004BE  4883C603          add rsi,byte +0x3
000004C2  800601            add byte [rsi],0x1
000004C5  4883EE03          sub rsi,byte +0x3
000004C9  803E00            cmp byte [rsi],0x0
000004CC  75ED              jnz 0x4bb
000004CE  4883EE01          sub rsi,byte +0x1
000004D2  800601            add byte [rsi],0x1
000004D5  4883EE09          sub rsi,byte +0x9
000004D9  803E00            cmp byte [rsi],0x0
000004DC  0F8559FFFFFF      jnz near 0x43b
000004E2  4883C609          add rsi,byte +0x9
000004E6  803E00            cmp byte [rsi],0x0
000004E9  7410              jz 0x4fb
000004EB  4883C601          add rsi,byte +0x1
000004EF  800601            add byte [rsi],0x1
000004F2  4883C608          add rsi,byte +0x8
000004F6  803E00            cmp byte [rsi],0x0
000004F9  75F0              jnz 0x4eb
000004FB  4883EE09          sub rsi,byte +0x9
000004FF  803E00            cmp byte [rsi],0x0
00000502  7409              jz 0x50d
00000504  4883EE09          sub rsi,byte +0x9
00000508  803E00            cmp byte [rsi],0x0
0000050B  75F7              jnz 0x504
0000050D  4883C609          add rsi,byte +0x9
00000511  803E00            cmp byte [rsi],0x0
00000514  0F8418010000      jz near 0x632
0000051A  4883C601          add rsi,byte +0x1
0000051E  802E01            sub byte [rsi],0x1
00000521  4883C605          add rsi,byte +0x5
00000525  803E00            cmp byte [rsi],0x0
00000528  7413              jz 0x53d
0000052A  802E01            sub byte [rsi],0x1
0000052D  4883EE05          sub rsi,byte +0x5
00000531  800601            add byte [rsi],0x1
00000534  4883C605          add rsi,byte +0x5
00000538  803E00            cmp byte [rsi],0x0
0000053B  75ED              jnz 0x52a
0000053D  4883EE05          sub rsi,byte +0x5
00000541  803E00            cmp byte [rsi],0x0
00000544  0F8478000000      jz near 0x5c2
0000054A  802E01            sub byte [rsi],0x1
0000054D  4883C605          add rsi,byte +0x5
00000551  800601            add byte [rsi],0x1
00000554  4883EE06          sub rsi,byte +0x6
00000558  803E00            cmp byte [rsi],0x0
0000055B  744E              jz 0x5ab
0000055D  802E01            sub byte [rsi],0x1
00000560  4883C603          add rsi,byte +0x3
00000564  803E00            cmp byte [rsi],0x0
00000567  7413              jz 0x57c
00000569  802E01            sub byte [rsi],0x1
0000056C  4883EE03          sub rsi,byte +0x3
00000570  800601            add byte [rsi],0x1
00000573  4883C603          add rsi,byte +0x3
00000577  803E00            cmp byte [rsi],0x0
0000057A  75ED              jnz 0x569
0000057C  4883EE03          sub rsi,byte +0x3
00000580  803E00            cmp byte [rsi],0x0
00000583  741A              jz 0x59f
00000585  802E01            sub byte [rsi],0x1
00000588  4883C603          add rsi,byte +0x3
0000058C  800601            add byte [rsi],0x1
0000058F  4883C601          add rsi,byte +0x1
00000593  800601            add byte [rsi],0x1
00000596  4883EE04          sub rsi,byte +0x4
0000059A  803E00            cmp byte [rsi],0x0
0000059D  75E6              jnz 0x585
0000059F  800601            add byte [rsi],0x1
000005A2  4883C609          add rsi,byte +0x9
000005A6  803E00            cmp byte [rsi],0x0
000005A9  75B2              jnz 0x55d
000005AB  4883EE08          sub rsi,byte +0x8
000005AF  803E00            cmp byte [rsi],0x0
000005B2  7409              jz 0x5bd
000005B4  4883EE09          sub rsi,byte +0x9
000005B8  803E00            cmp byte [rsi],0x0
000005BB  75F7              jnz 0x5b4
000005BD  803E00            cmp byte [rsi],0x0
000005C0  7588              jnz 0x54a
000005C2  4883C609          add rsi,byte +0x9
000005C6  803E00            cmp byte [rsi],0x0
000005C9  7409              jz 0x5d4
000005CB  4883C609          add rsi,byte +0x9
000005CF  803E00            cmp byte [rsi],0x0
000005D2  75F7              jnz 0x5cb
000005D4  4883EE09          sub rsi,byte +0x9
000005D8  803E00            cmp byte [rsi],0x0
000005DB  7425              jz 0x602
000005DD  4883C602          add rsi,byte +0x2
000005E1  803E00            cmp byte [rsi],0x0
000005E4  7413              jz 0x5f9
000005E6  802E01            sub byte [rsi],0x1
000005E9  4883C609          add rsi,byte +0x9
000005ED  800601            add byte [rsi],0x1
000005F0  4883EE09          sub rsi,byte +0x9
000005F4  803E00            cmp byte [rsi],0x0
000005F7  75ED              jnz 0x5e6
000005F9  4883EE0B          sub rsi,byte +0xb
000005FD  803E00            cmp byte [rsi],0x0
00000600  75DB              jnz 0x5dd
00000602  4883C602          add rsi,byte +0x2
00000606  803E00            cmp byte [rsi],0x0
00000609  7413              jz 0x61e
0000060B  802E01            sub byte [rsi],0x1
0000060E  4883C609          add rsi,byte +0x9
00000612  800601            add byte [rsi],0x1
00000615  4883EE09          sub rsi,byte +0x9
00000619  803E00            cmp byte [rsi],0x0
0000061C  75ED              jnz 0x60b
0000061E  4883EE02          sub rsi,byte +0x2
00000622  800601            add byte [rsi],0x1
00000625  4883C608          add rsi,byte +0x8
00000629  803E00            cmp byte [rsi],0x0
0000062C  0F85E8FEFFFF      jnz near 0x51a
00000632  4883EE09          sub rsi,byte +0x9
00000636  803E00            cmp byte [rsi],0x0
00000639  0F84A7000000      jz near 0x6e6
0000063F  4883C601          add rsi,byte +0x1
00000643  803E00            cmp byte [rsi],0x0
00000646  7408              jz 0x650
00000648  802E01            sub byte [rsi],0x1
0000064B  803E00            cmp byte [rsi],0x0
0000064E  75F8              jnz 0x648
00000650  4883EE01          sub rsi,byte +0x1
00000654  802E01            sub byte [rsi],0x1
00000657  4883C604          add rsi,byte +0x4
0000065B  803E00            cmp byte [rsi],0x0
0000065E  7456              jz 0x6b6
00000660  802E01            sub byte [rsi],0x1
00000663  4883EE04          sub rsi,byte +0x4
00000667  800601            add byte [rsi],0x1
0000066A  4883C601          add rsi,byte +0x1
0000066E  803E00            cmp byte [rsi],0x0
00000671  741E              jz 0x691
00000673  4883EE01          sub rsi,byte +0x1
00000677  802E01            sub byte [rsi],0x1
0000067A  4883C601          add rsi,byte +0x1
0000067E  802E01            sub byte [rsi],0x1
00000681  4883EE06          sub rsi,byte +0x6
00000685  800601            add byte [rsi],0x1
00000688  4883C606          add rsi,byte +0x6
0000068C  803E00            cmp byte [rsi],0x0
0000068F  75E2              jnz 0x673
00000691  4883EE01          sub rsi,byte +0x1
00000695  803E00            cmp byte [rsi],0x0
00000698  7413              jz 0x6ad
0000069A  802E01            sub byte [rsi],0x1
0000069D  4883C601          add rsi,byte +0x1
000006A1  800601            add byte [rsi],0x1
000006A4  4883EE01          sub rsi,byte +0x1
000006A8  803E00            cmp byte [rsi],0x0
000006AB  75ED              jnz 0x69a
000006AD  4883C604          add rsi,byte +0x4
000006B1  803E00            cmp byte [rsi],0x0
000006B4  75AA              jnz 0x660
000006B6  4883EE03          sub rsi,byte +0x3
000006BA  803E00            cmp byte [rsi],0x0
000006BD  7413              jz 0x6d2
000006BF  802E01            sub byte [rsi],0x1
000006C2  4883C603          add rsi,byte +0x3
000006C6  800601            add byte [rsi],0x1
000006C9  4883EE03          sub rsi,byte +0x3
000006CD  803E00            cmp byte [rsi],0x0
000006D0  75ED              jnz 0x6bf
000006D2  4883EE01          sub rsi,byte +0x1
000006D6  800601            add byte [rsi],0x1
000006D9  4883EE09          sub rsi,byte +0x9
000006DD  803E00            cmp byte [rsi],0x0
000006E0  0F8559FFFFFF      jnz near 0x63f
000006E6  4883C609          add rsi,byte +0x9
000006EA  803E00            cmp byte [rsi],0x0
000006ED  7425              jz 0x714
000006EF  4883C604          add rsi,byte +0x4
000006F3  803E00            cmp byte [rsi],0x0
000006F6  7413              jz 0x70b
000006F8  802E01            sub byte [rsi],0x1
000006FB  4883EE24          sub rsi,byte +0x24
000006FF  800601            add byte [rsi],0x1
00000702  4883C624          add rsi,byte +0x24
00000706  803E00            cmp byte [rsi],0x0
00000709  75ED              jnz 0x6f8
0000070B  4883C605          add rsi,byte +0x5
0000070F  803E00            cmp byte [rsi],0x0
00000712  75DB              jnz 0x6ef
00000714  4883EE09          sub rsi,byte +0x9
00000718  803E00            cmp byte [rsi],0x0
0000071B  7409              jz 0x726
0000071D  4883EE09          sub rsi,byte +0x9
00000721  803E00            cmp byte [rsi],0x0
00000724  75F7              jnz 0x71d
00000726  4883C609          add rsi,byte +0x9
0000072A  80060F            add byte [rsi],0xf
0000072D  803E00            cmp byte [rsi],0x0
00000730  7433              jz 0x765
00000732  803E00            cmp byte [rsi],0x0
00000735  7409              jz 0x740
00000737  4883C609          add rsi,byte +0x9
0000073B  803E00            cmp byte [rsi],0x0
0000073E  75F7              jnz 0x737
00000740  4883EE09          sub rsi,byte +0x9
00000744  802E01            sub byte [rsi],0x1
00000747  4883EE09          sub rsi,byte +0x9
0000074B  803E00            cmp byte [rsi],0x0
0000074E  7409              jz 0x759
00000750  4883EE09          sub rsi,byte +0x9
00000754  803E00            cmp byte [rsi],0x0
00000757  75F7              jnz 0x750
00000759  4883C609          add rsi,byte +0x9
0000075D  802E01            sub byte [rsi],0x1
00000760  803E00            cmp byte [rsi],0x0
00000763  75CD              jnz 0x732
00000765  800601            add byte [rsi],0x1
00000768  4883C615          add rsi,byte +0x15
0000076C  800601            add byte [rsi],0x1
0000076F  4883EE03          sub rsi,byte +0x3
00000773  803E00            cmp byte [rsi],0x0
00000776  7409              jz 0x781
00000778  4883EE09          sub rsi,byte +0x9
0000077C  803E00            cmp byte [rsi],0x0
0000077F  75F7              jnz 0x778
00000781  4883C609          add rsi,byte +0x9
00000785  803E00            cmp byte [rsi],0x0
00000788  0F84B7010000      jz near 0x945
0000078E  4883C603          add rsi,byte +0x3
00000792  803E00            cmp byte [rsi],0x0
00000795  7413              jz 0x7aa
00000797  802E01            sub byte [rsi],0x1
0000079A  4883EE03          sub rsi,byte +0x3
0000079E  802E01            sub byte [rsi],0x1
000007A1  4883C603          add rsi,byte +0x3
000007A5  803E00            cmp byte [rsi],0x0
000007A8  75ED              jnz 0x797
000007AA  800601            add byte [rsi],0x1
000007AD  4883EE03          sub rsi,byte +0x3
000007B1  803E00            cmp byte [rsi],0x0
000007B4  0F848A000000      jz near 0x844
000007BA  802E01            sub byte [rsi],0x1
000007BD  4883C603          add rsi,byte +0x3
000007C1  802E01            sub byte [rsi],0x1
000007C4  4883C601          add rsi,byte +0x1
000007C8  803E00            cmp byte [rsi],0x0
000007CB  7413              jz 0x7e0
000007CD  802E01            sub byte [rsi],0x1
000007D0  4883EE04          sub rsi,byte +0x4
000007D4  800601            add byte [rsi],0x1
000007D7  4883C604          add rsi,byte +0x4
000007DB  803E00            cmp byte [rsi],0x0
000007DE  75ED              jnz 0x7cd
000007E0  4883EE04          sub rsi,byte +0x4
000007E4  803E00            cmp byte [rsi],0x0
000007E7  7452              jz 0x83b
000007E9  802E01            sub byte [rsi],0x1
000007EC  4883C604          add rsi,byte +0x4
000007F0  800601            add byte [rsi],0x1
000007F3  4883EE0D          sub rsi,byte +0xd
000007F7  803E00            cmp byte [rsi],0x0
000007FA  7409              jz 0x805
000007FC  4883EE09          sub rsi,byte +0x9
00000800  803E00            cmp byte [rsi],0x0
00000803  75F7              jnz 0x7fc
00000805  4883C604          add rsi,byte +0x4
00000809  803E00            cmp byte [rsi],0x0
0000080C  7408              jz 0x816
0000080E  802E01            sub byte [rsi],0x1
00000811  803E00            cmp byte [rsi],0x0
00000814  75F8              jnz 0x80e
00000816  800601            add byte [rsi],0x1
00000819  4883C605          add rsi,byte +0x5
0000081D  803E00            cmp byte [rsi],0x0
00000820  7409              jz 0x82b
00000822  4883C609          add rsi,byte +0x9
00000826  803E00            cmp byte [rsi],0x0
00000829  75F7              jnz 0x822
0000082B  4883C601          add rsi,byte +0x1
0000082F  800601            add byte [rsi],0x1
00000832  4883EE01          sub rsi,byte +0x1
00000836  803E00            cmp byte [rsi],0x0
00000839  75AE              jnz 0x7e9
0000083B  803E00            cmp byte [rsi],0x0
0000083E  0F8576FFFFFF      jnz near 0x7ba
00000844  800601            add byte [rsi],0x1
00000847  4883C604          add rsi,byte +0x4
0000084B  803E00            cmp byte [rsi],0x0
0000084E  7413              jz 0x863
00000850  802E01            sub byte [rsi],0x1
00000853  4883EE04          sub rsi,byte +0x4
00000857  802E01            sub byte [rsi],0x1
0000085A  4883C604          add rsi,byte +0x4
0000085E  803E00            cmp byte [rsi],0x0
00000861  75ED              jnz 0x850
00000863  800601            add byte [rsi],0x1
00000866  4883EE04          sub rsi,byte +0x4
0000086A  803E00            cmp byte [rsi],0x0
0000086D  0F849B000000      jz near 0x90e
00000873  802E01            sub byte [rsi],0x1
00000876  4883C604          add rsi,byte +0x4
0000087A  802E01            sub byte [rsi],0x1
0000087D  4883EE01          sub rsi,byte +0x1
00000881  803E00            cmp byte [rsi],0x0
00000884  7413              jz 0x899
00000886  802E01            sub byte [rsi],0x1
00000889  4883EE03          sub rsi,byte +0x3
0000088D  800601            add byte [rsi],0x1
00000890  4883C603          add rsi,byte +0x3
00000894  803E00            cmp byte [rsi],0x0
00000897  75ED              jnz 0x886
00000899  4883EE03          sub rsi,byte +0x3
0000089D  803E00            cmp byte [rsi],0x0
000008A0  0F845F000000      jz near 0x905
000008A6  802E01            sub byte [rsi],0x1
000008A9  4883C603          add rsi,byte +0x3
000008AD  800601            add byte [rsi],0x1
000008B0  4883EE0C          sub rsi,byte +0xc
000008B4  803E00            cmp byte [rsi],0x0
000008B7  7409              jz 0x8c2
000008B9  4883EE09          sub rsi,byte +0x9
000008BD  803E00            cmp byte [rsi],0x0
000008C0  75F7              jnz 0x8b9
000008C2  4883C603          add rsi,byte +0x3
000008C6  803E00            cmp byte [rsi],0x0
000008C9  7408              jz 0x8d3
000008CB  802E01            sub byte [rsi],0x1
000008CE  803E00            cmp byte [rsi],0x0
000008D1  75F8              jnz 0x8cb
000008D3  800601            add byte [rsi],0x1
000008D6  4883C606          add rsi,byte +0x6
000008DA  803E00            cmp byte [rsi],0x0
000008DD  7409              jz 0x8e8
000008DF  4883C609          add rsi,byte +0x9
000008E3  803E00            cmp byte [rsi],0x0
000008E6  75F7              jnz 0x8df
000008E8  4883C601          add rsi,byte +0x1
000008EC  803E00            cmp byte [rsi],0x0
000008EF  7408              jz 0x8f9
000008F1  802E01            sub byte [rsi],0x1
000008F4  803E00            cmp byte [rsi],0x0
000008F7  75F8              jnz 0x8f1
000008F9  800601            add byte [rsi],0x1
000008FC  4883EE01          sub rsi,byte +0x1
00000900  803E00            cmp byte [rsi],0x0
00000903  75A1              jnz 0x8a6
00000905  803E00            cmp byte [rsi],0x0
00000908  0F8565FFFFFF      jnz near 0x873
0000090E  800601            add byte [rsi],0x1
00000911  4883C601          add rsi,byte +0x1
00000915  803E00            cmp byte [rsi],0x0
00000918  741E              jz 0x938
0000091A  802E01            sub byte [rsi],0x1
0000091D  4883EE01          sub rsi,byte +0x1
00000921  803E00            cmp byte [rsi],0x0
00000924  7409              jz 0x92f
00000926  4883C609          add rsi,byte +0x9
0000092A  803E00            cmp byte [rsi],0x0
0000092D  75F7              jnz 0x926
0000092F  4883EE08          sub rsi,byte +0x8
00000933  803E00            cmp byte [rsi],0x0
00000936  75E2              jnz 0x91a
00000938  4883C608          add rsi,byte +0x8
0000093C  803E00            cmp byte [rsi],0x0
0000093F  0F8549FEFFFF      jnz near 0x78e
00000945  4883EE09          sub rsi,byte +0x9
00000949  803E00            cmp byte [rsi],0x0
0000094C  7409              jz 0x957
0000094E  4883EE09          sub rsi,byte +0x9
00000952  803E00            cmp byte [rsi],0x0
00000955  75F7              jnz 0x94e
00000957  4883EE07          sub rsi,byte +0x7
0000095B  803E00            cmp byte [rsi],0x0
0000095E  741A              jz 0x97a
00000960  802E01            sub byte [rsi],0x1
00000963  4883C601          add rsi,byte +0x1
00000967  800601            add byte [rsi],0x1
0000096A  4883C603          add rsi,byte +0x3
0000096E  802E01            sub byte [rsi],0x1
00000971  4883EE04          sub rsi,byte +0x4
00000975  803E00            cmp byte [rsi],0x0
00000978  75E6              jnz 0x960
0000097A  4883C609          add rsi,byte +0x9
0000097E  80061A            add byte [rsi],0x1a
00000981  4883C602          add rsi,byte +0x2
00000985  803E00            cmp byte [rsi],0x0
00000988  7413              jz 0x99d
0000098A  802E01            sub byte [rsi],0x1
0000098D  4883EE04          sub rsi,byte +0x4
00000991  800601            add byte [rsi],0x1
00000994  4883C604          add rsi,byte +0x4
00000998  803E00            cmp byte [rsi],0x0
0000099B  75ED              jnz 0x98a
0000099D  4883EE04          sub rsi,byte +0x4
000009A1  803E00            cmp byte [rsi],0x0
000009A4  7424              jz 0x9ca
000009A6  802E01            sub byte [rsi],0x1
000009A9  4883C604          add rsi,byte +0x4
000009AD  800601            add byte [rsi],0x1
000009B0  4883EE02          sub rsi,byte +0x2
000009B4  803E00            cmp byte [rsi],0x0
000009B7  7408              jz 0x9c1
000009B9  802E01            sub byte [rsi],0x1
000009BC  803E00            cmp byte [rsi],0x0
000009BF  75F8              jnz 0x9b9
000009C1  4883EE02          sub rsi,byte +0x2
000009C5  803E00            cmp byte [rsi],0x0
000009C8  75DC              jnz 0x9a6
000009CA  4883C602          add rsi,byte +0x2
000009CE  803E00            cmp byte [rsi],0x0
000009D1  0F846A2A0000      jz near 0x3441
000009D7  4883EE07          sub rsi,byte +0x7
000009DB  800601            add byte [rsi],0x1
000009DE  4883EE01          sub rsi,byte +0x1
000009E2  803E00            cmp byte [rsi],0x0
000009E5  7427              jz 0xa0e
000009E7  802E01            sub byte [rsi],0x1
000009EA  4883EE01          sub rsi,byte +0x1
000009EE  800601            add byte [rsi],0x1
000009F1  4883C604          add rsi,byte +0x4
000009F5  800601            add byte [rsi],0x1
000009F8  4883EE02          sub rsi,byte +0x2
000009FC  803E00            cmp byte [rsi],0x0
000009FF  7408              jz 0xa09
00000A01  802E01            sub byte [rsi],0x1
00000A04  803E00            cmp byte [rsi],0x0
00000A07  75F8              jnz 0xa01
00000A09  803E00            cmp byte [rsi],0x0
00000A0C  75D9              jnz 0x9e7
00000A0E  4883C601          add rsi,byte +0x1
00000A12  803E00            cmp byte [rsi],0x0
00000A15  742F              jz 0xa46
00000A17  802E01            sub byte [rsi],0x1
00000A1A  4883EE02          sub rsi,byte +0x2
00000A1E  803E00            cmp byte [rsi],0x0
00000A21  741A              jz 0xa3d
00000A23  802E01            sub byte [rsi],0x1
00000A26  4883C601          add rsi,byte +0x1
00000A2A  800601            add byte [rsi],0x1
00000A2D  4883C603          add rsi,byte +0x3
00000A31  802E01            sub byte [rsi],0x1
00000A34  4883EE04          sub rsi,byte +0x4
00000A38  803E00            cmp byte [rsi],0x0
00000A3B  75E6              jnz 0xa23
00000A3D  4883C603          add rsi,byte +0x3
00000A41  803E00            cmp byte [rsi],0x0
00000A44  75D1              jnz 0xa17
00000A46  4883C60D          add rsi,byte +0xd
00000A4A  803E00            cmp byte [rsi],0x0
00000A4D  743C              jz 0xa8b
00000A4F  4883C602          add rsi,byte +0x2
00000A53  803E00            cmp byte [rsi],0x0
00000A56  7408              jz 0xa60
00000A58  802E01            sub byte [rsi],0x1
00000A5B  803E00            cmp byte [rsi],0x0
00000A5E  75F8              jnz 0xa58
00000A60  4883C601          add rsi,byte +0x1
00000A64  803E00            cmp byte [rsi],0x0
00000A67  7408              jz 0xa71
00000A69  802E01            sub byte [rsi],0x1
00000A6C  803E00            cmp byte [rsi],0x0
00000A6F  75F8              jnz 0xa69
00000A71  4883C601          add rsi,byte +0x1
00000A75  803E00            cmp byte [rsi],0x0
00000A78  7408              jz 0xa82
00000A7A  802E01            sub byte [rsi],0x1
00000A7D  803E00            cmp byte [rsi],0x0
00000A80  75F8              jnz 0xa7a
00000A82  4883C605          add rsi,byte +0x5
00000A86  803E00            cmp byte [rsi],0x0
00000A89  75C4              jnz 0xa4f
00000A8B  4883EE09          sub rsi,byte +0x9
00000A8F  803E00            cmp byte [rsi],0x0
00000A92  7409              jz 0xa9d
00000A94  4883EE09          sub rsi,byte +0x9
00000A98  803E00            cmp byte [rsi],0x0
00000A9B  75F7              jnz 0xa94
00000A9D  4883C603          add rsi,byte +0x3
00000AA1  803E00            cmp byte [rsi],0x0
00000AA4  7408              jz 0xaae
00000AA6  802E01            sub byte [rsi],0x1
00000AA9  803E00            cmp byte [rsi],0x0
00000AAC  75F8              jnz 0xaa6
00000AAE  4883C606          add rsi,byte +0x6
00000AB2  803E00            cmp byte [rsi],0x0
00000AB5  7448              jz 0xaff
00000AB7  4883C605          add rsi,byte +0x5
00000ABB  803E00            cmp byte [rsi],0x0
00000ABE  7413              jz 0xad3
00000AC0  802E01            sub byte [rsi],0x1
00000AC3  4883EE04          sub rsi,byte +0x4
00000AC7  800601            add byte [rsi],0x1
00000ACA  4883C604          add rsi,byte +0x4
00000ACE  803E00            cmp byte [rsi],0x0
00000AD1  75ED              jnz 0xac0
00000AD3  4883EE04          sub rsi,byte +0x4
00000AD7  803E00            cmp byte [rsi],0x0
00000ADA  741A              jz 0xaf6
00000ADC  802E01            sub byte [rsi],0x1
00000ADF  4883C604          add rsi,byte +0x4
00000AE3  800601            add byte [rsi],0x1
00000AE6  4883EE03          sub rsi,byte +0x3
00000AEA  800601            add byte [rsi],0x1
00000AED  4883EE01          sub rsi,byte +0x1
00000AF1  803E00            cmp byte [rsi],0x0
00000AF4  75E6              jnz 0xadc
00000AF6  4883C608          add rsi,byte +0x8
00000AFA  803E00            cmp byte [rsi],0x0
00000AFD  75B8              jnz 0xab7
00000AFF  4883EE09          sub rsi,byte +0x9
00000B03  803E00            cmp byte [rsi],0x0
00000B06  7409              jz 0xb11
00000B08  4883EE09          sub rsi,byte +0x9
00000B0C  803E00            cmp byte [rsi],0x0
00000B0F  75F7              jnz 0xb08
00000B11  4883C609          add rsi,byte +0x9
00000B15  803E00            cmp byte [rsi],0x0
00000B18  7425              jz 0xb3f
00000B1A  4883C602          add rsi,byte +0x2
00000B1E  803E00            cmp byte [rsi],0x0
00000B21  7413              jz 0xb36
00000B23  802E01            sub byte [rsi],0x1
00000B26  4883EE09          sub rsi,byte +0x9
00000B2A  800601            add byte [rsi],0x1
00000B2D  4883C609          add rsi,byte +0x9
00000B31  803E00            cmp byte [rsi],0x0
00000B34  75ED              jnz 0xb23
00000B36  4883C607          add rsi,byte +0x7
00000B3A  803E00            cmp byte [rsi],0x0
00000B3D  75DB              jnz 0xb1a
00000B3F  4883EE09          sub rsi,byte +0x9
00000B43  803E00            cmp byte [rsi],0x0
00000B46  7409              jz 0xb51
00000B48  4883EE09          sub rsi,byte +0x9
00000B4C  803E00            cmp byte [rsi],0x0
00000B4F  75F7              jnz 0xb48
00000B51  4883C609          add rsi,byte +0x9
00000B55  80060F            add byte [rsi],0xf
00000B58  803E00            cmp byte [rsi],0x0
00000B5B  0F84CC000000      jz near 0xc2d
00000B61  803E00            cmp byte [rsi],0x0
00000B64  7409              jz 0xb6f
00000B66  4883C609          add rsi,byte +0x9
00000B6A  803E00            cmp byte [rsi],0x0
00000B6D  75F7              jnz 0xb66
00000B6F  800601            add byte [rsi],0x1
00000B72  4883C601          add rsi,byte +0x1
00000B76  803E00            cmp byte [rsi],0x0
00000B79  7408              jz 0xb83
00000B7B  802E01            sub byte [rsi],0x1
00000B7E  803E00            cmp byte [rsi],0x0
00000B81  75F8              jnz 0xb7b
00000B83  4883C601          add rsi,byte +0x1
00000B87  803E00            cmp byte [rsi],0x0
00000B8A  7408              jz 0xb94
00000B8C  802E01            sub byte [rsi],0x1
00000B8F  803E00            cmp byte [rsi],0x0
00000B92  75F8              jnz 0xb8c
00000B94  4883C601          add rsi,byte +0x1
00000B98  803E00            cmp byte [rsi],0x0
00000B9B  7408              jz 0xba5
00000B9D  802E01            sub byte [rsi],0x1
00000BA0  803E00            cmp byte [rsi],0x0
00000BA3  75F8              jnz 0xb9d
00000BA5  4883C601          add rsi,byte +0x1
00000BA9  803E00            cmp byte [rsi],0x0
00000BAC  7408              jz 0xbb6
00000BAE  802E01            sub byte [rsi],0x1
00000BB1  803E00            cmp byte [rsi],0x0
00000BB4  75F8              jnz 0xbae
00000BB6  4883C601          add rsi,byte +0x1
00000BBA  803E00            cmp byte [rsi],0x0
00000BBD  7408              jz 0xbc7
00000BBF  802E01            sub byte [rsi],0x1
00000BC2  803E00            cmp byte [rsi],0x0
00000BC5  75F8              jnz 0xbbf
00000BC7  4883C601          add rsi,byte +0x1
00000BCB  803E00            cmp byte [rsi],0x0
00000BCE  7408              jz 0xbd8
00000BD0  802E01            sub byte [rsi],0x1
00000BD3  803E00            cmp byte [rsi],0x0
00000BD6  75F8              jnz 0xbd0
00000BD8  4883C601          add rsi,byte +0x1
00000BDC  803E00            cmp byte [rsi],0x0
00000BDF  7408              jz 0xbe9
00000BE1  802E01            sub byte [rsi],0x1
00000BE4  803E00            cmp byte [rsi],0x0
00000BE7  75F8              jnz 0xbe1
00000BE9  4883C601          add rsi,byte +0x1
00000BED  803E00            cmp byte [rsi],0x0
00000BF0  7408              jz 0xbfa
00000BF2  802E01            sub byte [rsi],0x1
00000BF5  803E00            cmp byte [rsi],0x0
00000BF8  75F8              jnz 0xbf2
00000BFA  4883C601          add rsi,byte +0x1
00000BFE  803E00            cmp byte [rsi],0x0
00000C01  7408              jz 0xc0b
00000C03  802E01            sub byte [rsi],0x1
00000C06  803E00            cmp byte [rsi],0x0
00000C09  75F8              jnz 0xc03
00000C0B  4883EE09          sub rsi,byte +0x9
00000C0F  803E00            cmp byte [rsi],0x0
00000C12  7409              jz 0xc1d
00000C14  4883EE09          sub rsi,byte +0x9
00000C18  803E00            cmp byte [rsi],0x0
00000C1B  75F7              jnz 0xc14
00000C1D  4883C609          add rsi,byte +0x9
00000C21  802E01            sub byte [rsi],0x1
00000C24  803E00            cmp byte [rsi],0x0
00000C27  0F8534FFFFFF      jnz near 0xb61
00000C2D  800601            add byte [rsi],0x1
00000C30  803E00            cmp byte [rsi],0x0
00000C33  7410              jz 0xc45
00000C35  4883C601          add rsi,byte +0x1
00000C39  800601            add byte [rsi],0x1
00000C3C  4883C608          add rsi,byte +0x8
00000C40  803E00            cmp byte [rsi],0x0
00000C43  75F0              jnz 0xc35
00000C45  4883EE09          sub rsi,byte +0x9
00000C49  803E00            cmp byte [rsi],0x0
00000C4C  7409              jz 0xc57
00000C4E  4883EE09          sub rsi,byte +0x9
00000C52  803E00            cmp byte [rsi],0x0
00000C55  75F7              jnz 0xc4e
00000C57  4883C609          add rsi,byte +0x9
00000C5B  803E00            cmp byte [rsi],0x0
00000C5E  0F8418010000      jz near 0xd7c
00000C64  4883C601          add rsi,byte +0x1
00000C68  802E01            sub byte [rsi],0x1
00000C6B  4883C605          add rsi,byte +0x5
00000C6F  803E00            cmp byte [rsi],0x0
00000C72  7413              jz 0xc87
00000C74  802E01            sub byte [rsi],0x1
00000C77  4883EE05          sub rsi,byte +0x5
00000C7B  800601            add byte [rsi],0x1
00000C7E  4883C605          add rsi,byte +0x5
00000C82  803E00            cmp byte [rsi],0x0
00000C85  75ED              jnz 0xc74
00000C87  4883EE05          sub rsi,byte +0x5
00000C8B  803E00            cmp byte [rsi],0x0
00000C8E  0F8478000000      jz near 0xd0c
00000C94  802E01            sub byte [rsi],0x1
00000C97  4883C605          add rsi,byte +0x5
00000C9B  800601            add byte [rsi],0x1
00000C9E  4883EE06          sub rsi,byte +0x6
00000CA2  803E00            cmp byte [rsi],0x0
00000CA5  744E              jz 0xcf5
00000CA7  802E01            sub byte [rsi],0x1
00000CAA  4883C602          add rsi,byte +0x2
00000CAE  803E00            cmp byte [rsi],0x0
00000CB1  7413              jz 0xcc6
00000CB3  802E01            sub byte [rsi],0x1
00000CB6  4883EE02          sub rsi,byte +0x2
00000CBA  800601            add byte [rsi],0x1
00000CBD  4883C602          add rsi,byte +0x2
00000CC1  803E00            cmp byte [rsi],0x0
00000CC4  75ED              jnz 0xcb3
00000CC6  4883EE02          sub rsi,byte +0x2
00000CCA  803E00            cmp byte [rsi],0x0
00000CCD  741A              jz 0xce9
00000CCF  802E01            sub byte [rsi],0x1
00000CD2  4883C602          add rsi,byte +0x2
00000CD6  800601            add byte [rsi],0x1
00000CD9  4883C601          add rsi,byte +0x1
00000CDD  800601            add byte [rsi],0x1
00000CE0  4883EE03          sub rsi,byte +0x3
00000CE4  803E00            cmp byte [rsi],0x0
00000CE7  75E6              jnz 0xccf
00000CE9  800601            add byte [rsi],0x1
00000CEC  4883C609          add rsi,byte +0x9
00000CF0  803E00            cmp byte [rsi],0x0
00000CF3  75B2              jnz 0xca7
00000CF5  4883EE08          sub rsi,byte +0x8
00000CF9  803E00            cmp byte [rsi],0x0
00000CFC  7409              jz 0xd07
00000CFE  4883EE09          sub rsi,byte +0x9
00000D02  803E00            cmp byte [rsi],0x0
00000D05  75F7              jnz 0xcfe
00000D07  803E00            cmp byte [rsi],0x0
00000D0A  7588              jnz 0xc94
00000D0C  4883C609          add rsi,byte +0x9
00000D10  803E00            cmp byte [rsi],0x0
00000D13  7409              jz 0xd1e
00000D15  4883C609          add rsi,byte +0x9
00000D19  803E00            cmp byte [rsi],0x0
00000D1C  75F7              jnz 0xd15
00000D1E  4883EE09          sub rsi,byte +0x9
00000D22  803E00            cmp byte [rsi],0x0
00000D25  7425              jz 0xd4c
00000D27  4883C601          add rsi,byte +0x1
00000D2B  803E00            cmp byte [rsi],0x0
00000D2E  7413              jz 0xd43
00000D30  802E01            sub byte [rsi],0x1
00000D33  4883C609          add rsi,byte +0x9
00000D37  800601            add byte [rsi],0x1
00000D3A  4883EE09          sub rsi,byte +0x9
00000D3E  803E00            cmp byte [rsi],0x0
00000D41  75ED              jnz 0xd30
00000D43  4883EE0A          sub rsi,byte +0xa
00000D47  803E00            cmp byte [rsi],0x0
00000D4A  75DB              jnz 0xd27
00000D4C  4883C601          add rsi,byte +0x1
00000D50  803E00            cmp byte [rsi],0x0
00000D53  7413              jz 0xd68
00000D55  802E01            sub byte [rsi],0x1
00000D58  4883C609          add rsi,byte +0x9
00000D5C  800601            add byte [rsi],0x1
00000D5F  4883EE09          sub rsi,byte +0x9
00000D63  803E00            cmp byte [rsi],0x0
00000D66  75ED              jnz 0xd55
00000D68  4883EE01          sub rsi,byte +0x1
00000D6C  800601            add byte [rsi],0x1
00000D6F  4883C608          add rsi,byte +0x8
00000D73  803E00            cmp byte [rsi],0x0
00000D76  0F85E8FEFFFF      jnz near 0xc64
00000D7C  4883EE09          sub rsi,byte +0x9
00000D80  803E00            cmp byte [rsi],0x0
00000D83  0F84A7000000      jz near 0xe30
00000D89  4883C601          add rsi,byte +0x1
00000D8D  803E00            cmp byte [rsi],0x0
00000D90  7408              jz 0xd9a
00000D92  802E01            sub byte [rsi],0x1
00000D95  803E00            cmp byte [rsi],0x0
00000D98  75F8              jnz 0xd92
00000D9A  4883EE01          sub rsi,byte +0x1
00000D9E  802E01            sub byte [rsi],0x1
00000DA1  4883C603          add rsi,byte +0x3
00000DA5  803E00            cmp byte [rsi],0x0
00000DA8  7456              jz 0xe00
00000DAA  802E01            sub byte [rsi],0x1
00000DAD  4883EE03          sub rsi,byte +0x3
00000DB1  800601            add byte [rsi],0x1
00000DB4  4883C601          add rsi,byte +0x1
00000DB8  803E00            cmp byte [rsi],0x0
00000DBB  741E              jz 0xddb
00000DBD  4883EE01          sub rsi,byte +0x1
00000DC1  802E01            sub byte [rsi],0x1
00000DC4  4883C601          add rsi,byte +0x1
00000DC8  802E01            sub byte [rsi],0x1
00000DCB  4883EE07          sub rsi,byte +0x7
00000DCF  800601            add byte [rsi],0x1
00000DD2  4883C607          add rsi,byte +0x7
00000DD6  803E00            cmp byte [rsi],0x0
00000DD9  75E2              jnz 0xdbd
00000DDB  4883EE01          sub rsi,byte +0x1
00000DDF  803E00            cmp byte [rsi],0x0
00000DE2  7413              jz 0xdf7
00000DE4  802E01            sub byte [rsi],0x1
00000DE7  4883C601          add rsi,byte +0x1
00000DEB  800601            add byte [rsi],0x1
00000DEE  4883EE01          sub rsi,byte +0x1
00000DF2  803E00            cmp byte [rsi],0x0
00000DF5  75ED              jnz 0xde4
00000DF7  4883C603          add rsi,byte +0x3
00000DFB  803E00            cmp byte [rsi],0x0
00000DFE  75AA              jnz 0xdaa
00000E00  4883EE02          sub rsi,byte +0x2
00000E04  803E00            cmp byte [rsi],0x0
00000E07  7413              jz 0xe1c
00000E09  802E01            sub byte [rsi],0x1
00000E0C  4883C602          add rsi,byte +0x2
00000E10  800601            add byte [rsi],0x1
00000E13  4883EE02          sub rsi,byte +0x2
00000E17  803E00            cmp byte [rsi],0x0
00000E1A  75ED              jnz 0xe09
00000E1C  4883EE01          sub rsi,byte +0x1
00000E20  800601            add byte [rsi],0x1
00000E23  4883EE09          sub rsi,byte +0x9
00000E27  803E00            cmp byte [rsi],0x0
00000E2A  0F8559FFFFFF      jnz near 0xd89
00000E30  4883C609          add rsi,byte +0x9
00000E34  803E00            cmp byte [rsi],0x0
00000E37  7448              jz 0xe81
00000E39  4883C606          add rsi,byte +0x6
00000E3D  803E00            cmp byte [rsi],0x0
00000E40  7413              jz 0xe55
00000E42  802E01            sub byte [rsi],0x1
00000E45  4883EE05          sub rsi,byte +0x5
00000E49  800601            add byte [rsi],0x1
00000E4C  4883C605          add rsi,byte +0x5
00000E50  803E00            cmp byte [rsi],0x0
00000E53  75ED              jnz 0xe42
00000E55  4883EE05          sub rsi,byte +0x5
00000E59  803E00            cmp byte [rsi],0x0
00000E5C  741A              jz 0xe78
00000E5E  802E01            sub byte [rsi],0x1
00000E61  4883C605          add rsi,byte +0x5
00000E65  800601            add byte [rsi],0x1
00000E68  4883EE04          sub rsi,byte +0x4
00000E6C  800601            add byte [rsi],0x1
00000E6F  4883EE01          sub rsi,byte +0x1
00000E73  803E00            cmp byte [rsi],0x0
00000E76  75E6              jnz 0xe5e
00000E78  4883C608          add rsi,byte +0x8
00000E7C  803E00            cmp byte [rsi],0x0
00000E7F  75B8              jnz 0xe39
00000E81  4883EE09          sub rsi,byte +0x9
00000E85  803E00            cmp byte [rsi],0x0
00000E88  7409              jz 0xe93
00000E8A  4883EE09          sub rsi,byte +0x9
00000E8E  803E00            cmp byte [rsi],0x0
00000E91  75F7              jnz 0xe8a
00000E93  4883C609          add rsi,byte +0x9
00000E97  803E00            cmp byte [rsi],0x0
00000E9A  7410              jz 0xeac
00000E9C  4883C601          add rsi,byte +0x1
00000EA0  800601            add byte [rsi],0x1
00000EA3  4883C608          add rsi,byte +0x8
00000EA7  803E00            cmp byte [rsi],0x0
00000EAA  75F0              jnz 0xe9c
00000EAC  4883EE09          sub rsi,byte +0x9
00000EB0  803E00            cmp byte [rsi],0x0
00000EB3  7409              jz 0xebe
00000EB5  4883EE09          sub rsi,byte +0x9
00000EB9  803E00            cmp byte [rsi],0x0
00000EBC  75F7              jnz 0xeb5
00000EBE  4883C609          add rsi,byte +0x9
00000EC2  803E00            cmp byte [rsi],0x0
00000EC5  0F8418010000      jz near 0xfe3
00000ECB  4883C601          add rsi,byte +0x1
00000ECF  802E01            sub byte [rsi],0x1
00000ED2  4883C605          add rsi,byte +0x5
00000ED6  803E00            cmp byte [rsi],0x0
00000ED9  7413              jz 0xeee
00000EDB  802E01            sub byte [rsi],0x1
00000EDE  4883EE05          sub rsi,byte +0x5
00000EE2  800601            add byte [rsi],0x1
00000EE5  4883C605          add rsi,byte +0x5
00000EE9  803E00            cmp byte [rsi],0x0
00000EEC  75ED              jnz 0xedb
00000EEE  4883EE05          sub rsi,byte +0x5
00000EF2  803E00            cmp byte [rsi],0x0
00000EF5  0F8478000000      jz near 0xf73
00000EFB  802E01            sub byte [rsi],0x1
00000EFE  4883C605          add rsi,byte +0x5
00000F02  800601            add byte [rsi],0x1
00000F05  4883EE06          sub rsi,byte +0x6
00000F09  803E00            cmp byte [rsi],0x0
00000F0C  744E              jz 0xf5c
00000F0E  802E01            sub byte [rsi],0x1
00000F11  4883C602          add rsi,byte +0x2
00000F15  803E00            cmp byte [rsi],0x0
00000F18  7413              jz 0xf2d
00000F1A  802E01            sub byte [rsi],0x1
00000F1D  4883EE02          sub rsi,byte +0x2
00000F21  800601            add byte [rsi],0x1
00000F24  4883C602          add rsi,byte +0x2
00000F28  803E00            cmp byte [rsi],0x0
00000F2B  75ED              jnz 0xf1a
00000F2D  4883EE02          sub rsi,byte +0x2
00000F31  803E00            cmp byte [rsi],0x0
00000F34  741A              jz 0xf50
00000F36  802E01            sub byte [rsi],0x1
00000F39  4883C602          add rsi,byte +0x2
00000F3D  800601            add byte [rsi],0x1
00000F40  4883C602          add rsi,byte +0x2
00000F44  800601            add byte [rsi],0x1
00000F47  4883EE04          sub rsi,byte +0x4
00000F4B  803E00            cmp byte [rsi],0x0
00000F4E  75E6              jnz 0xf36
00000F50  800601            add byte [rsi],0x1
00000F53  4883C609          add rsi,byte +0x9
00000F57  803E00            cmp byte [rsi],0x0
00000F5A  75B2              jnz 0xf0e
00000F5C  4883EE08          sub rsi,byte +0x8
00000F60  803E00            cmp byte [rsi],0x0
00000F63  7409              jz 0xf6e
00000F65  4883EE09          sub rsi,byte +0x9
00000F69  803E00            cmp byte [rsi],0x0
00000F6C  75F7              jnz 0xf65
00000F6E  803E00            cmp byte [rsi],0x0
00000F71  7588              jnz 0xefb
00000F73  4883C609          add rsi,byte +0x9
00000F77  803E00            cmp byte [rsi],0x0
00000F7A  7409              jz 0xf85
00000F7C  4883C609          add rsi,byte +0x9
00000F80  803E00            cmp byte [rsi],0x0
00000F83  75F7              jnz 0xf7c
00000F85  4883EE09          sub rsi,byte +0x9
00000F89  803E00            cmp byte [rsi],0x0
00000F8C  7425              jz 0xfb3
00000F8E  4883C601          add rsi,byte +0x1
00000F92  803E00            cmp byte [rsi],0x0
00000F95  7413              jz 0xfaa
00000F97  802E01            sub byte [rsi],0x1
00000F9A  4883C609          add rsi,byte +0x9
00000F9E  800601            add byte [rsi],0x1
00000FA1  4883EE09          sub rsi,byte +0x9
00000FA5  803E00            cmp byte [rsi],0x0
00000FA8  75ED              jnz 0xf97
00000FAA  4883EE0A          sub rsi,byte +0xa
00000FAE  803E00            cmp byte [rsi],0x0
00000FB1  75DB              jnz 0xf8e
00000FB3  4883C601          add rsi,byte +0x1
00000FB7  803E00            cmp byte [rsi],0x0
00000FBA  7413              jz 0xfcf
00000FBC  802E01            sub byte [rsi],0x1
00000FBF  4883C609          add rsi,byte +0x9
00000FC3  800601            add byte [rsi],0x1
00000FC6  4883EE09          sub rsi,byte +0x9
00000FCA  803E00            cmp byte [rsi],0x0
00000FCD  75ED              jnz 0xfbc
00000FCF  4883EE01          sub rsi,byte +0x1
00000FD3  800601            add byte [rsi],0x1
00000FD6  4883C608          add rsi,byte +0x8
00000FDA  803E00            cmp byte [rsi],0x0
00000FDD  0F85E8FEFFFF      jnz near 0xecb
00000FE3  4883EE09          sub rsi,byte +0x9
00000FE7  803E00            cmp byte [rsi],0x0
00000FEA  0F84A7000000      jz near 0x1097
00000FF0  4883C601          add rsi,byte +0x1
00000FF4  803E00            cmp byte [rsi],0x0
00000FF7  7408              jz 0x1001
00000FF9  802E01            sub byte [rsi],0x1
00000FFC  803E00            cmp byte [rsi],0x0
00000FFF  75F8              jnz 0xff9
00001001  4883EE01          sub rsi,byte +0x1
00001005  802E01            sub byte [rsi],0x1
00001008  4883C604          add rsi,byte +0x4
0000100C  803E00            cmp byte [rsi],0x0
0000100F  7456              jz 0x1067
00001011  802E01            sub byte [rsi],0x1
00001014  4883EE04          sub rsi,byte +0x4
00001018  800601            add byte [rsi],0x1
0000101B  4883C601          add rsi,byte +0x1
0000101F  803E00            cmp byte [rsi],0x0
00001022  741E              jz 0x1042
00001024  4883EE01          sub rsi,byte +0x1
00001028  802E01            sub byte [rsi],0x1
0000102B  4883C601          add rsi,byte +0x1
0000102F  802E01            sub byte [rsi],0x1
00001032  4883EE06          sub rsi,byte +0x6
00001036  800601            add byte [rsi],0x1
00001039  4883C606          add rsi,byte +0x6
0000103D  803E00            cmp byte [rsi],0x0
00001040  75E2              jnz 0x1024
00001042  4883EE01          sub rsi,byte +0x1
00001046  803E00            cmp byte [rsi],0x0
00001049  7413              jz 0x105e
0000104B  802E01            sub byte [rsi],0x1
0000104E  4883C601          add rsi,byte +0x1
00001052  800601            add byte [rsi],0x1
00001055  4883EE01          sub rsi,byte +0x1
00001059  803E00            cmp byte [rsi],0x0
0000105C  75ED              jnz 0x104b
0000105E  4883C604          add rsi,byte +0x4
00001062  803E00            cmp byte [rsi],0x0
00001065  75AA              jnz 0x1011
00001067  4883EE03          sub rsi,byte +0x3
0000106B  803E00            cmp byte [rsi],0x0
0000106E  7413              jz 0x1083
00001070  802E01            sub byte [rsi],0x1
00001073  4883C603          add rsi,byte +0x3
00001077  800601            add byte [rsi],0x1
0000107A  4883EE03          sub rsi,byte +0x3
0000107E  803E00            cmp byte [rsi],0x0
00001081  75ED              jnz 0x1070
00001083  4883EE01          sub rsi,byte +0x1
00001087  800601            add byte [rsi],0x1
0000108A  4883EE09          sub rsi,byte +0x9
0000108E  803E00            cmp byte [rsi],0x0
00001091  0F8559FFFFFF      jnz near 0xff0
00001097  4883C609          add rsi,byte +0x9
0000109B  803E00            cmp byte [rsi],0x0
0000109E  7425              jz 0x10c5
000010A0  4883C604          add rsi,byte +0x4
000010A4  803E00            cmp byte [rsi],0x0
000010A7  7413              jz 0x10bc
000010A9  802E01            sub byte [rsi],0x1
000010AC  4883EE24          sub rsi,byte +0x24
000010B0  800601            add byte [rsi],0x1
000010B3  4883C624          add rsi,byte +0x24
000010B7  803E00            cmp byte [rsi],0x0
000010BA  75ED              jnz 0x10a9
000010BC  4883C605          add rsi,byte +0x5
000010C0  803E00            cmp byte [rsi],0x0
000010C3  75DB              jnz 0x10a0
000010C5  4883EE09          sub rsi,byte +0x9
000010C9  803E00            cmp byte [rsi],0x0
000010CC  7409              jz 0x10d7
000010CE  4883EE09          sub rsi,byte +0x9
000010D2  803E00            cmp byte [rsi],0x0
000010D5  75F7              jnz 0x10ce
000010D7  4883C609          add rsi,byte +0x9
000010DB  803E00            cmp byte [rsi],0x0
000010DE  7425              jz 0x1105
000010E0  4883C603          add rsi,byte +0x3
000010E4  803E00            cmp byte [rsi],0x0
000010E7  7413              jz 0x10fc
000010E9  802E01            sub byte [rsi],0x1
000010EC  4883EE24          sub rsi,byte +0x24
000010F0  800601            add byte [rsi],0x1
000010F3  4883C624          add rsi,byte +0x24
000010F7  803E00            cmp byte [rsi],0x0
000010FA  75ED              jnz 0x10e9
000010FC  4883C606          add rsi,byte +0x6
00001100  803E00            cmp byte [rsi],0x0
00001103  75DB              jnz 0x10e0
00001105  4883EE09          sub rsi,byte +0x9
00001109  803E00            cmp byte [rsi],0x0
0000110C  7409              jz 0x1117
0000110E  4883EE09          sub rsi,byte +0x9
00001112  803E00            cmp byte [rsi],0x0
00001115  75F7              jnz 0x110e
00001117  4883C609          add rsi,byte +0x9
0000111B  80060F            add byte [rsi],0xf
0000111E  803E00            cmp byte [rsi],0x0
00001121  7433              jz 0x1156
00001123  803E00            cmp byte [rsi],0x0
00001126  7409              jz 0x1131
00001128  4883C609          add rsi,byte +0x9
0000112C  803E00            cmp byte [rsi],0x0
0000112F  75F7              jnz 0x1128
00001131  4883EE09          sub rsi,byte +0x9
00001135  802E01            sub byte [rsi],0x1
00001138  4883EE09          sub rsi,byte +0x9
0000113C  803E00            cmp byte [rsi],0x0
0000113F  7409              jz 0x114a
00001141  4883EE09          sub rsi,byte +0x9
00001145  803E00            cmp byte [rsi],0x0
00001148  75F7              jnz 0x1141
0000114A  4883C609          add rsi,byte +0x9
0000114E  802E01            sub byte [rsi],0x1
00001151  803E00            cmp byte [rsi],0x0
00001154  75CD              jnz 0x1123
00001156  800601            add byte [rsi],0x1
00001159  803E00            cmp byte [rsi],0x0
0000115C  7448              jz 0x11a6
0000115E  4883C608          add rsi,byte +0x8
00001162  803E00            cmp byte [rsi],0x0
00001165  7413              jz 0x117a
00001167  802E01            sub byte [rsi],0x1
0000116A  4883EE07          sub rsi,byte +0x7
0000116E  800601            add byte [rsi],0x1
00001171  4883C607          add rsi,byte +0x7
00001175  803E00            cmp byte [rsi],0x0
00001178  75ED              jnz 0x1167
0000117A  4883EE07          sub rsi,byte +0x7
0000117E  803E00            cmp byte [rsi],0x0
00001181  741A              jz 0x119d
00001183  802E01            sub byte [rsi],0x1
00001186  4883C607          add rsi,byte +0x7
0000118A  800601            add byte [rsi],0x1
0000118D  4883EE06          sub rsi,byte +0x6
00001191  800601            add byte [rsi],0x1
00001194  4883EE01          sub rsi,byte +0x1
00001198  803E00            cmp byte [rsi],0x0
0000119B  75E6              jnz 0x1183
0000119D  4883C608          add rsi,byte +0x8
000011A1  803E00            cmp byte [rsi],0x0
000011A4  75B8              jnz 0x115e
000011A6  4883EE09          sub rsi,byte +0x9
000011AA  803E00            cmp byte [rsi],0x0
000011AD  7409              jz 0x11b8
000011AF  4883EE09          sub rsi,byte +0x9
000011B3  803E00            cmp byte [rsi],0x0
000011B6  75F7              jnz 0x11af
000011B8  4883C609          add rsi,byte +0x9
000011BC  803E00            cmp byte [rsi],0x0
000011BF  741A              jz 0x11db
000011C1  4883C606          add rsi,byte +0x6
000011C5  803E00            cmp byte [rsi],0x0
000011C8  7408              jz 0x11d2
000011CA  802E01            sub byte [rsi],0x1
000011CD  803E00            cmp byte [rsi],0x0
000011D0  75F8              jnz 0x11ca
000011D2  4883C603          add rsi,byte +0x3
000011D6  803E00            cmp byte [rsi],0x0
000011D9  75E6              jnz 0x11c1
000011DB  4883EE09          sub rsi,byte +0x9
000011DF  803E00            cmp byte [rsi],0x0
000011E2  7409              jz 0x11ed
000011E4  4883EE09          sub rsi,byte +0x9
000011E8  803E00            cmp byte [rsi],0x0
000011EB  75F7              jnz 0x11e4
000011ED  4883C604          add rsi,byte +0x4
000011F1  800601            add byte [rsi],0x1
000011F4  4883C601          add rsi,byte +0x1
000011F8  803E00            cmp byte [rsi],0x0
000011FB  741A              jz 0x1217
000011FD  802E01            sub byte [rsi],0x1
00001200  4883EE01          sub rsi,byte +0x1
00001204  802E01            sub byte [rsi],0x1
00001207  4883EE04          sub rsi,byte +0x4
0000120B  800601            add byte [rsi],0x1
0000120E  4883C605          add rsi,byte +0x5
00001212  803E00            cmp byte [rsi],0x0
00001215  75E6              jnz 0x11fd
00001217  4883C601          add rsi,byte +0x1
0000121B  803E00            cmp byte [rsi],0x0
0000121E  7459              jz 0x1279
00001220  802E01            sub byte [rsi],0x1
00001223  4883EE06          sub rsi,byte +0x6
00001227  803E00            cmp byte [rsi],0x0
0000122A  741A              jz 0x1246
0000122C  802E01            sub byte [rsi],0x1
0000122F  4883C605          add rsi,byte +0x5
00001233  800601            add byte [rsi],0x1
00001236  4883EE01          sub rsi,byte +0x1
0000123A  800602            add byte [rsi],0x2
0000123D  4883EE04          sub rsi,byte +0x4
00001241  803E00            cmp byte [rsi],0x0
00001244  75E6              jnz 0x122c
00001246  4883C605          add rsi,byte +0x5
0000124A  803E00            cmp byte [rsi],0x0
0000124D  7413              jz 0x1262
0000124F  802E01            sub byte [rsi],0x1
00001252  4883EE05          sub rsi,byte +0x5
00001256  800601            add byte [rsi],0x1
00001259  4883C605          add rsi,byte +0x5
0000125D  803E00            cmp byte [rsi],0x0
00001260  75ED              jnz 0x124f
00001262  4883EE01          sub rsi,byte +0x1
00001266  802E01            sub byte [rsi],0x1
00001269  4883C601          add rsi,byte +0x1
0000126D  800601            add byte [rsi],0x1
00001270  4883C601          add rsi,byte +0x1
00001274  803E00            cmp byte [rsi],0x0
00001277  75A7              jnz 0x1220
00001279  4883EE01          sub rsi,byte +0x1
0000127D  803E00            cmp byte [rsi],0x0
00001280  7413              jz 0x1295
00001282  802E01            sub byte [rsi],0x1
00001285  4883C601          add rsi,byte +0x1
00001289  800601            add byte [rsi],0x1
0000128C  4883EE01          sub rsi,byte +0x1
00001290  803E00            cmp byte [rsi],0x0
00001293  75ED              jnz 0x1282
00001295  4883EE05          sub rsi,byte +0x5
00001299  803E00            cmp byte [rsi],0x0
0000129C  7413              jz 0x12b1
0000129E  802E01            sub byte [rsi],0x1
000012A1  4883C605          add rsi,byte +0x5
000012A5  800601            add byte [rsi],0x1
000012A8  4883EE05          sub rsi,byte +0x5
000012AC  803E00            cmp byte [rsi],0x0
000012AF  75ED              jnz 0x129e
000012B1  4883C606          add rsi,byte +0x6
000012B5  803E00            cmp byte [rsi],0x0
000012B8  7408              jz 0x12c2
000012BA  802E01            sub byte [rsi],0x1
000012BD  803E00            cmp byte [rsi],0x0
000012C0  75F8              jnz 0x12ba
000012C2  4883EE06          sub rsi,byte +0x6
000012C6  800601            add byte [rsi],0x1
000012C9  4883C604          add rsi,byte +0x4
000012CD  803E00            cmp byte [rsi],0x0
000012D0  7413              jz 0x12e5
000012D2  802E01            sub byte [rsi],0x1
000012D5  4883EE04          sub rsi,byte +0x4
000012D9  802E01            sub byte [rsi],0x1
000012DC  4883C604          add rsi,byte +0x4
000012E0  803E00            cmp byte [rsi],0x0
000012E3  75ED              jnz 0x12d2
000012E5  800601            add byte [rsi],0x1
000012E8  4883EE04          sub rsi,byte +0x4
000012EC  803E00            cmp byte [rsi],0x0
000012EF  0F841F050000      jz near 0x1814
000012F5  802E01            sub byte [rsi],0x1
000012F8  4883C604          add rsi,byte +0x4
000012FC  802E01            sub byte [rsi],0x1
000012FF  4883C605          add rsi,byte +0x5
00001303  803E00            cmp byte [rsi],0x0
00001306  0F84B7010000      jz near 0x14c3
0000130C  4883C602          add rsi,byte +0x2
00001310  803E00            cmp byte [rsi],0x0
00001313  7413              jz 0x1328
00001315  802E01            sub byte [rsi],0x1
00001318  4883EE02          sub rsi,byte +0x2
0000131C  802E01            sub byte [rsi],0x1
0000131F  4883C602          add rsi,byte +0x2
00001323  803E00            cmp byte [rsi],0x0
00001326  75ED              jnz 0x1315
00001328  800601            add byte [rsi],0x1
0000132B  4883EE02          sub rsi,byte +0x2
0000132F  803E00            cmp byte [rsi],0x0
00001332  0F848A000000      jz near 0x13c2
00001338  802E01            sub byte [rsi],0x1
0000133B  4883C602          add rsi,byte +0x2
0000133F  802E01            sub byte [rsi],0x1
00001342  4883C601          add rsi,byte +0x1
00001346  803E00            cmp byte [rsi],0x0
00001349  7413              jz 0x135e
0000134B  802E01            sub byte [rsi],0x1
0000134E  4883EE03          sub rsi,byte +0x3
00001352  800601            add byte [rsi],0x1
00001355  4883C603          add rsi,byte +0x3
00001359  803E00            cmp byte [rsi],0x0
0000135C  75ED              jnz 0x134b
0000135E  4883EE03          sub rsi,byte +0x3
00001362  803E00            cmp byte [rsi],0x0
00001365  7452              jz 0x13b9
00001367  802E01            sub byte [rsi],0x1
0000136A  4883C603          add rsi,byte +0x3
0000136E  800601            add byte [rsi],0x1
00001371  4883EE0C          sub rsi,byte +0xc
00001375  803E00            cmp byte [rsi],0x0
00001378  7409              jz 0x1383
0000137A  4883EE09          sub rsi,byte +0x9
0000137E  803E00            cmp byte [rsi],0x0
00001381  75F7              jnz 0x137a
00001383  4883C603          add rsi,byte +0x3
00001387  803E00            cmp byte [rsi],0x0
0000138A  7408              jz 0x1394
0000138C  802E01            sub byte [rsi],0x1
0000138F  803E00            cmp byte [rsi],0x0
00001392  75F8              jnz 0x138c
00001394  800601            add byte [rsi],0x1
00001397  4883C606          add rsi,byte +0x6
0000139B  803E00            cmp byte [rsi],0x0
0000139E  7409              jz 0x13a9
000013A0  4883C609          add rsi,byte +0x9
000013A4  803E00            cmp byte [rsi],0x0
000013A7  75F7              jnz 0x13a0
000013A9  4883C601          add rsi,byte +0x1
000013AD  800601            add byte [rsi],0x1
000013B0  4883EE01          sub rsi,byte +0x1
000013B4  803E00            cmp byte [rsi],0x0
000013B7  75AE              jnz 0x1367
000013B9  803E00            cmp byte [rsi],0x0
000013BC  0F8576FFFFFF      jnz near 0x1338
000013C2  800601            add byte [rsi],0x1
000013C5  4883C603          add rsi,byte +0x3
000013C9  803E00            cmp byte [rsi],0x0
000013CC  7413              jz 0x13e1
000013CE  802E01            sub byte [rsi],0x1
000013D1  4883EE03          sub rsi,byte +0x3
000013D5  802E01            sub byte [rsi],0x1
000013D8  4883C603          add rsi,byte +0x3
000013DC  803E00            cmp byte [rsi],0x0
000013DF  75ED              jnz 0x13ce
000013E1  800601            add byte [rsi],0x1
000013E4  4883EE03          sub rsi,byte +0x3
000013E8  803E00            cmp byte [rsi],0x0
000013EB  0F849B000000      jz near 0x148c
000013F1  802E01            sub byte [rsi],0x1
000013F4  4883C603          add rsi,byte +0x3
000013F8  802E01            sub byte [rsi],0x1
000013FB  4883EE01          sub rsi,byte +0x1
000013FF  803E00            cmp byte [rsi],0x0
00001402  7413              jz 0x1417
00001404  802E01            sub byte [rsi],0x1
00001407  4883EE02          sub rsi,byte +0x2
0000140B  800601            add byte [rsi],0x1
0000140E  4883C602          add rsi,byte +0x2
00001412  803E00            cmp byte [rsi],0x0
00001415  75ED              jnz 0x1404
00001417  4883EE02          sub rsi,byte +0x2
0000141B  803E00            cmp byte [rsi],0x0
0000141E  0F845F000000      jz near 0x1483
00001424  802E01            sub byte [rsi],0x1
00001427  4883C602          add rsi,byte +0x2
0000142B  800601            add byte [rsi],0x1
0000142E  4883EE0B          sub rsi,byte +0xb
00001432  803E00            cmp byte [rsi],0x0
00001435  7409              jz 0x1440
00001437  4883EE09          sub rsi,byte +0x9
0000143B  803E00            cmp byte [rsi],0x0
0000143E  75F7              jnz 0x1437
00001440  4883C604          add rsi,byte +0x4
00001444  803E00            cmp byte [rsi],0x0
00001447  7408              jz 0x1451
00001449  802E01            sub byte [rsi],0x1
0000144C  803E00            cmp byte [rsi],0x0
0000144F  75F8              jnz 0x1449
00001451  800601            add byte [rsi],0x1
00001454  4883C605          add rsi,byte +0x5
00001458  803E00            cmp byte [rsi],0x0
0000145B  7409              jz 0x1466
0000145D  4883C609          add rsi,byte +0x9
00001461  803E00            cmp byte [rsi],0x0
00001464  75F7              jnz 0x145d
00001466  4883C601          add rsi,byte +0x1
0000146A  803E00            cmp byte [rsi],0x0
0000146D  7408              jz 0x1477
0000146F  802E01            sub byte [rsi],0x1
00001472  803E00            cmp byte [rsi],0x0
00001475  75F8              jnz 0x146f
00001477  800601            add byte [rsi],0x1
0000147A  4883EE01          sub rsi,byte +0x1
0000147E  803E00            cmp byte [rsi],0x0
00001481  75A1              jnz 0x1424
00001483  803E00            cmp byte [rsi],0x0
00001486  0F8565FFFFFF      jnz near 0x13f1
0000148C  800601            add byte [rsi],0x1
0000148F  4883C601          add rsi,byte +0x1
00001493  803E00            cmp byte [rsi],0x0
00001496  741E              jz 0x14b6
00001498  802E01            sub byte [rsi],0x1
0000149B  4883EE01          sub rsi,byte +0x1
0000149F  803E00            cmp byte [rsi],0x0
000014A2  7409              jz 0x14ad
000014A4  4883C609          add rsi,byte +0x9
000014A8  803E00            cmp byte [rsi],0x0
000014AB  75F7              jnz 0x14a4
000014AD  4883EE08          sub rsi,byte +0x8
000014B1  803E00            cmp byte [rsi],0x0
000014B4  75E2              jnz 0x1498
000014B6  4883C608          add rsi,byte +0x8
000014BA  803E00            cmp byte [rsi],0x0
000014BD  0F8549FEFFFF      jnz near 0x130c
000014C3  4883EE09          sub rsi,byte +0x9
000014C7  803E00            cmp byte [rsi],0x0
000014CA  7409              jz 0x14d5
000014CC  4883EE09          sub rsi,byte +0x9
000014D0  803E00            cmp byte [rsi],0x0
000014D3  75F7              jnz 0x14cc
000014D5  4883C604          add rsi,byte +0x4
000014D9  803E00            cmp byte [rsi],0x0
000014DC  7413              jz 0x14f1
000014DE  802E01            sub byte [rsi],0x1
000014E1  4883EE04          sub rsi,byte +0x4
000014E5  800601            add byte [rsi],0x1
000014E8  4883C604          add rsi,byte +0x4
000014EC  803E00            cmp byte [rsi],0x0
000014EF  75ED              jnz 0x14de
000014F1  4883EE04          sub rsi,byte +0x4
000014F5  803E00            cmp byte [rsi],0x0
000014F8  0F8477010000      jz near 0x1675
000014FE  802E01            sub byte [rsi],0x1
00001501  4883C604          add rsi,byte +0x4
00001505  800601            add byte [rsi],0x1
00001508  4883C605          add rsi,byte +0x5
0000150C  803E00            cmp byte [rsi],0x0
0000150F  7448              jz 0x1559
00001511  4883C601          add rsi,byte +0x1
00001515  800601            add byte [rsi],0x1
00001518  4883C602          add rsi,byte +0x2
0000151C  803E00            cmp byte [rsi],0x0
0000151F  7413              jz 0x1534
00001521  802E01            sub byte [rsi],0x1
00001524  4883EE02          sub rsi,byte +0x2
00001528  802E01            sub byte [rsi],0x1
0000152B  4883C602          add rsi,byte +0x2
0000152F  803E00            cmp byte [rsi],0x0
00001532  75ED              jnz 0x1521
00001534  4883EE02          sub rsi,byte +0x2
00001538  803E00            cmp byte [rsi],0x0
0000153B  7413              jz 0x1550
0000153D  802E01            sub byte [rsi],0x1
00001540  4883C602          add rsi,byte +0x2
00001544  800601            add byte [rsi],0x1
00001547  4883EE02          sub rsi,byte +0x2
0000154B  803E00            cmp byte [rsi],0x0
0000154E  75ED              jnz 0x153d
00001550  4883C608          add rsi,byte +0x8
00001554  803E00            cmp byte [rsi],0x0
00001557  75B8              jnz 0x1511
00001559  4883EE08          sub rsi,byte +0x8
0000155D  800601            add byte [rsi],0x1
00001560  4883EE01          sub rsi,byte +0x1
00001564  803E00            cmp byte [rsi],0x0
00001567  0F84EA000000      jz near 0x1657
0000156D  4883C601          add rsi,byte +0x1
00001571  803E00            cmp byte [rsi],0x0
00001574  0F8475000000      jz near 0x15ef
0000157A  802E01            sub byte [rsi],0x1
0000157D  4883C605          add rsi,byte +0x5
00001581  800601            add byte [rsi],0x1
00001584  4883EE04          sub rsi,byte +0x4
00001588  803E00            cmp byte [rsi],0x0
0000158B  7436              jz 0x15c3
0000158D  802E01            sub byte [rsi],0x1
00001590  4883C604          add rsi,byte +0x4
00001594  802E01            sub byte [rsi],0x1
00001597  4883EE0E          sub rsi,byte +0xe
0000159B  800601            add byte [rsi],0x1
0000159E  4883C60B          add rsi,byte +0xb
000015A2  803E00            cmp byte [rsi],0x0
000015A5  7413              jz 0x15ba
000015A7  802E01            sub byte [rsi],0x1
000015AA  4883C603          add rsi,byte +0x3
000015AE  800601            add byte [rsi],0x1
000015B1  4883EE03          sub rsi,byte +0x3
000015B5  803E00            cmp byte [rsi],0x0
000015B8  75ED              jnz 0x15a7
000015BA  4883EE01          sub rsi,byte +0x1
000015BE  803E00            cmp byte [rsi],0x0
000015C1  75CA              jnz 0x158d
000015C3  4883C601          add rsi,byte +0x1
000015C7  803E00            cmp byte [rsi],0x0
000015CA  741A              jz 0x15e6
000015CC  802E01            sub byte [rsi],0x1
000015CF  4883C603          add rsi,byte +0x3
000015D3  802E01            sub byte [rsi],0x1
000015D6  4883EE0E          sub rsi,byte +0xe
000015DA  800601            add byte [rsi],0x1
000015DD  4883C60B          add rsi,byte +0xb
000015E1  803E00            cmp byte [rsi],0x0
000015E4  75E6              jnz 0x15cc
000015E6  4883EE02          sub rsi,byte +0x2
000015EA  803E00            cmp byte [rsi],0x0
000015ED  758B              jnz 0x157a
000015EF  4883C601          add rsi,byte +0x1
000015F3  803E00            cmp byte [rsi],0x0
000015F6  7436              jz 0x162e
000015F8  802E01            sub byte [rsi],0x1
000015FB  4883C604          add rsi,byte +0x4
000015FF  800601            add byte [rsi],0x1
00001602  4883EE03          sub rsi,byte +0x3
00001606  803E00            cmp byte [rsi],0x0
00001609  741A              jz 0x1625
0000160B  802E01            sub byte [rsi],0x1
0000160E  4883C603          add rsi,byte +0x3
00001612  802E01            sub byte [rsi],0x1
00001615  4883EE0E          sub rsi,byte +0xe
00001619  800601            add byte [rsi],0x1
0000161C  4883C60B          add rsi,byte +0xb
00001620  803E00            cmp byte [rsi],0x0
00001623  75E6              jnz 0x160b
00001625  4883EE01          sub rsi,byte +0x1
00001629  803E00            cmp byte [rsi],0x0
0000162C  75CA              jnz 0x15f8
0000162E  4883C601          add rsi,byte +0x1
00001632  803E00            cmp byte [rsi],0x0
00001635  7413              jz 0x164a
00001637  802E01            sub byte [rsi],0x1
0000163A  4883C603          add rsi,byte +0x3
0000163E  800601            add byte [rsi],0x1
00001641  4883EE03          sub rsi,byte +0x3
00001645  803E00            cmp byte [rsi],0x0
00001648  75ED              jnz 0x1637
0000164A  4883EE0C          sub rsi,byte +0xc
0000164E  803E00            cmp byte [rsi],0x0
00001651  0F8516FFFFFF      jnz near 0x156d
00001657  4883C604          add rsi,byte +0x4
0000165B  803E00            cmp byte [rsi],0x0
0000165E  7408              jz 0x1668
00001660  802E01            sub byte [rsi],0x1
00001663  803E00            cmp byte [rsi],0x0
00001666  75F8              jnz 0x1660
00001668  4883EE04          sub rsi,byte +0x4
0000166C  803E00            cmp byte [rsi],0x0
0000166F  0F8589FEFFFF      jnz near 0x14fe
00001675  4883C603          add rsi,byte +0x3
00001679  803E00            cmp byte [rsi],0x0
0000167C  7413              jz 0x1691
0000167E  802E01            sub byte [rsi],0x1
00001681  4883EE03          sub rsi,byte +0x3
00001685  800601            add byte [rsi],0x1
00001688  4883C603          add rsi,byte +0x3
0000168C  803E00            cmp byte [rsi],0x0
0000168F  75ED              jnz 0x167e
00001691  4883EE03          sub rsi,byte +0x3
00001695  803E00            cmp byte [rsi],0x0
00001698  0F846D010000      jz near 0x180b
0000169E  802E01            sub byte [rsi],0x1
000016A1  4883C603          add rsi,byte +0x3
000016A5  800601            add byte [rsi],0x1
000016A8  4883C606          add rsi,byte +0x6
000016AC  803E00            cmp byte [rsi],0x0
000016AF  7448              jz 0x16f9
000016B1  4883C601          add rsi,byte +0x1
000016B5  800601            add byte [rsi],0x1
000016B8  4883C601          add rsi,byte +0x1
000016BC  803E00            cmp byte [rsi],0x0
000016BF  7413              jz 0x16d4
000016C1  802E01            sub byte [rsi],0x1
000016C4  4883EE01          sub rsi,byte +0x1
000016C8  802E01            sub byte [rsi],0x1
000016CB  4883C601          add rsi,byte +0x1
000016CF  803E00            cmp byte [rsi],0x0
000016D2  75ED              jnz 0x16c1
000016D4  4883EE01          sub rsi,byte +0x1
000016D8  803E00            cmp byte [rsi],0x0
000016DB  7413              jz 0x16f0
000016DD  802E01            sub byte [rsi],0x1
000016E0  4883C601          add rsi,byte +0x1
000016E4  800601            add byte [rsi],0x1
000016E7  4883EE01          sub rsi,byte +0x1
000016EB  803E00            cmp byte [rsi],0x0
000016EE  75ED              jnz 0x16dd
000016F0  4883C608          add rsi,byte +0x8
000016F4  803E00            cmp byte [rsi],0x0
000016F7  75B8              jnz 0x16b1
000016F9  4883EE08          sub rsi,byte +0x8
000016FD  800601            add byte [rsi],0x1
00001700  4883EE01          sub rsi,byte +0x1
00001704  803E00            cmp byte [rsi],0x0
00001707  0F84EA000000      jz near 0x17f7
0000170D  4883C601          add rsi,byte +0x1
00001711  803E00            cmp byte [rsi],0x0
00001714  0F8475000000      jz near 0x178f
0000171A  802E01            sub byte [rsi],0x1
0000171D  4883C605          add rsi,byte +0x5
00001721  800601            add byte [rsi],0x1
00001724  4883EE03          sub rsi,byte +0x3
00001728  803E00            cmp byte [rsi],0x0
0000172B  7436              jz 0x1763
0000172D  802E01            sub byte [rsi],0x1
00001730  4883C603          add rsi,byte +0x3
00001734  802E01            sub byte [rsi],0x1
00001737  4883EE0E          sub rsi,byte +0xe
0000173B  800601            add byte [rsi],0x1
0000173E  4883C60A          add rsi,byte +0xa
00001742  803E00            cmp byte [rsi],0x0
00001745  7413              jz 0x175a
00001747  802E01            sub byte [rsi],0x1
0000174A  4883C604          add rsi,byte +0x4
0000174E  800601            add byte [rsi],0x1
00001751  4883EE04          sub rsi,byte +0x4
00001755  803E00            cmp byte [rsi],0x0
00001758  75ED              jnz 0x1747
0000175A  4883C601          add rsi,byte +0x1
0000175E  803E00            cmp byte [rsi],0x0
00001761  75CA              jnz 0x172d
00001763  4883EE01          sub rsi,byte +0x1
00001767  803E00            cmp byte [rsi],0x0
0000176A  741A              jz 0x1786
0000176C  802E01            sub byte [rsi],0x1
0000176F  4883C604          add rsi,byte +0x4
00001773  802E01            sub byte [rsi],0x1
00001776  4883EE0E          sub rsi,byte +0xe
0000177A  800601            add byte [rsi],0x1
0000177D  4883C60A          add rsi,byte +0xa
00001781  803E00            cmp byte [rsi],0x0
00001784  75E6              jnz 0x176c
00001786  4883EE01          sub rsi,byte +0x1
0000178A  803E00            cmp byte [rsi],0x0
0000178D  758B              jnz 0x171a
0000178F  4883C602          add rsi,byte +0x2
00001793  803E00            cmp byte [rsi],0x0
00001796  7436              jz 0x17ce
00001798  802E01            sub byte [rsi],0x1
0000179B  4883C603          add rsi,byte +0x3
0000179F  800601            add byte [rsi],0x1
000017A2  4883EE04          sub rsi,byte +0x4
000017A6  803E00            cmp byte [rsi],0x0
000017A9  741A              jz 0x17c5
000017AB  802E01            sub byte [rsi],0x1
000017AE  4883C604          add rsi,byte +0x4
000017B2  802E01            sub byte [rsi],0x1
000017B5  4883EE0E          sub rsi,byte +0xe
000017B9  800601            add byte [rsi],0x1
000017BC  4883C60A          add rsi,byte +0xa
000017C0  803E00            cmp byte [rsi],0x0
000017C3  75E6              jnz 0x17ab
000017C5  4883C601          add rsi,byte +0x1
000017C9  803E00            cmp byte [rsi],0x0
000017CC  75CA              jnz 0x1798
000017CE  4883EE01          sub rsi,byte +0x1
000017D2  803E00            cmp byte [rsi],0x0
000017D5  7413              jz 0x17ea
000017D7  802E01            sub byte [rsi],0x1
000017DA  4883C604          add rsi,byte +0x4
000017DE  800601            add byte [rsi],0x1
000017E1  4883EE04          sub rsi,byte +0x4
000017E5  803E00            cmp byte [rsi],0x0
000017E8  75ED              jnz 0x17d7
000017EA  4883EE0B          sub rsi,byte +0xb
000017EE  803E00            cmp byte [rsi],0x0
000017F1  0F8516FFFFFF      jnz near 0x170d
000017F7  4883C606          add rsi,byte +0x6
000017FB  800601            add byte [rsi],0x1
000017FE  4883EE06          sub rsi,byte +0x6
00001802  803E00            cmp byte [rsi],0x0
00001805  0F8593FEFFFF      jnz near 0x169e
0000180B  803E00            cmp byte [rsi],0x0
0000180E  0F85E1FAFFFF      jnz near 0x12f5
00001814  4883C604          add rsi,byte +0x4
00001818  803E00            cmp byte [rsi],0x0
0000181B  7413              jz 0x1830
0000181D  802E01            sub byte [rsi],0x1
00001820  4883EE04          sub rsi,byte +0x4
00001824  800601            add byte [rsi],0x1
00001827  4883C604          add rsi,byte +0x4
0000182B  803E00            cmp byte [rsi],0x0
0000182E  75ED              jnz 0x181d
00001830  4883EE04          sub rsi,byte +0x4
00001834  803E00            cmp byte [rsi],0x0
00001837  0F841C010000      jz near 0x1959
0000183D  802E01            sub byte [rsi],0x1
00001840  4883C604          add rsi,byte +0x4
00001844  800601            add byte [rsi],0x1
00001847  4883C605          add rsi,byte +0x5
0000184B  803E00            cmp byte [rsi],0x0
0000184E  7409              jz 0x1859
00001850  4883C609          add rsi,byte +0x9
00001854  803E00            cmp byte [rsi],0x0
00001857  75F7              jnz 0x1850
00001859  4883EE09          sub rsi,byte +0x9
0000185D  803E00            cmp byte [rsi],0x0
00001860  0F84EA000000      jz near 0x1950
00001866  4883C601          add rsi,byte +0x1
0000186A  803E00            cmp byte [rsi],0x0
0000186D  0F8475000000      jz near 0x18e8
00001873  802E01            sub byte [rsi],0x1
00001876  4883C605          add rsi,byte +0x5
0000187A  800601            add byte [rsi],0x1
0000187D  4883EE04          sub rsi,byte +0x4
00001881  803E00            cmp byte [rsi],0x0
00001884  7436              jz 0x18bc
00001886  802E01            sub byte [rsi],0x1
00001889  4883C604          add rsi,byte +0x4
0000188D  802E01            sub byte [rsi],0x1
00001890  4883EE0E          sub rsi,byte +0xe
00001894  800601            add byte [rsi],0x1
00001897  4883C60B          add rsi,byte +0xb
0000189B  803E00            cmp byte [rsi],0x0
0000189E  7413              jz 0x18b3
000018A0  802E01            sub byte [rsi],0x1
000018A3  4883C603          add rsi,byte +0x3
000018A7  800601            add byte [rsi],0x1
000018AA  4883EE03          sub rsi,byte +0x3
000018AE  803E00            cmp byte [rsi],0x0
000018B1  75ED              jnz 0x18a0
000018B3  4883EE01          sub rsi,byte +0x1
000018B7  803E00            cmp byte [rsi],0x0
000018BA  75CA              jnz 0x1886
000018BC  4883C601          add rsi,byte +0x1
000018C0  803E00            cmp byte [rsi],0x0
000018C3  741A              jz 0x18df
000018C5  802E01            sub byte [rsi],0x1
000018C8  4883C603          add rsi,byte +0x3
000018CC  802E01            sub byte [rsi],0x1
000018CF  4883EE0E          sub rsi,byte +0xe
000018D3  800601            add byte [rsi],0x1
000018D6  4883C60B          add rsi,byte +0xb
000018DA  803E00            cmp byte [rsi],0x0
000018DD  75E6              jnz 0x18c5
000018DF  4883EE02          sub rsi,byte +0x2
000018E3  803E00            cmp byte [rsi],0x0
000018E6  758B              jnz 0x1873
000018E8  4883C601          add rsi,byte +0x1
000018EC  803E00            cmp byte [rsi],0x0
000018EF  7436              jz 0x1927
000018F1  802E01            sub byte [rsi],0x1
000018F4  4883C604          add rsi,byte +0x4
000018F8  800601            add byte [rsi],0x1
000018FB  4883EE03          sub rsi,byte +0x3
000018FF  803E00            cmp byte [rsi],0x0
00001902  741A              jz 0x191e
00001904  802E01            sub byte [rsi],0x1
00001907  4883C603          add rsi,byte +0x3
0000190B  802E01            sub byte [rsi],0x1
0000190E  4883EE0E          sub rsi,byte +0xe
00001912  800601            add byte [rsi],0x1
00001915  4883C60B          add rsi,byte +0xb
00001919  803E00            cmp byte [rsi],0x0
0000191C  75E6              jnz 0x1904
0000191E  4883EE01          sub rsi,byte +0x1
00001922  803E00            cmp byte [rsi],0x0
00001925  75CA              jnz 0x18f1
00001927  4883C601          add rsi,byte +0x1
0000192B  803E00            cmp byte [rsi],0x0
0000192E  7413              jz 0x1943
00001930  802E01            sub byte [rsi],0x1
00001933  4883C603          add rsi,byte +0x3
00001937  800601            add byte [rsi],0x1
0000193A  4883EE03          sub rsi,byte +0x3
0000193E  803E00            cmp byte [rsi],0x0
00001941  75ED              jnz 0x1930
00001943  4883EE0C          sub rsi,byte +0xc
00001947  803E00            cmp byte [rsi],0x0
0000194A  0F8516FFFFFF      jnz near 0x1866
00001950  803E00            cmp byte [rsi],0x0
00001953  0F85E4FEFFFF      jnz near 0x183d
00001959  4883C601          add rsi,byte +0x1
0000195D  803E00            cmp byte [rsi],0x0
00001960  7408              jz 0x196a
00001962  802E01            sub byte [rsi],0x1
00001965  803E00            cmp byte [rsi],0x0
00001968  75F8              jnz 0x1962
0000196A  4883C602          add rsi,byte +0x2
0000196E  803E00            cmp byte [rsi],0x0
00001971  7408              jz 0x197b
00001973  802E01            sub byte [rsi],0x1
00001976  803E00            cmp byte [rsi],0x0
00001979  75F8              jnz 0x1973
0000197B  4883C601          add rsi,byte +0x1
0000197F  803E00            cmp byte [rsi],0x0
00001982  7408              jz 0x198c
00001984  802E01            sub byte [rsi],0x1
00001987  803E00            cmp byte [rsi],0x0
0000198A  75F8              jnz 0x1984
0000198C  4883C605          add rsi,byte +0x5
00001990  803E00            cmp byte [rsi],0x0
00001993  742B              jz 0x19c0
00001995  4883C602          add rsi,byte +0x2
00001999  803E00            cmp byte [rsi],0x0
0000199C  7408              jz 0x19a6
0000199E  802E01            sub byte [rsi],0x1
000019A1  803E00            cmp byte [rsi],0x0
000019A4  75F8              jnz 0x199e
000019A6  4883C601          add rsi,byte +0x1
000019AA  803E00            cmp byte [rsi],0x0
000019AD  7408              jz 0x19b7
000019AF  802E01            sub byte [rsi],0x1
000019B2  803E00            cmp byte [rsi],0x0
000019B5  75F8              jnz 0x19af
000019B7  4883C606          add rsi,byte +0x6
000019BB  803E00            cmp byte [rsi],0x0
000019BE  75D5              jnz 0x1995
000019C0  4883EE09          sub rsi,byte +0x9
000019C4  803E00            cmp byte [rsi],0x0
000019C7  7409              jz 0x19d2
000019C9  4883EE09          sub rsi,byte +0x9
000019CD  803E00            cmp byte [rsi],0x0
000019D0  75F7              jnz 0x19c9
000019D2  4883C609          add rsi,byte +0x9
000019D6  803E00            cmp byte [rsi],0x0
000019D9  7448              jz 0x1a23
000019DB  4883C605          add rsi,byte +0x5
000019DF  803E00            cmp byte [rsi],0x0
000019E2  7413              jz 0x19f7
000019E4  802E01            sub byte [rsi],0x1
000019E7  4883EE04          sub rsi,byte +0x4
000019EB  800601            add byte [rsi],0x1
000019EE  4883C604          add rsi,byte +0x4
000019F2  803E00            cmp byte [rsi],0x0
000019F5  75ED              jnz 0x19e4
000019F7  4883EE04          sub rsi,byte +0x4
000019FB  803E00            cmp byte [rsi],0x0
000019FE  741A              jz 0x1a1a
00001A00  802E01            sub byte [rsi],0x1
00001A03  4883C604          add rsi,byte +0x4
00001A07  800601            add byte [rsi],0x1
00001A0A  4883EE03          sub rsi,byte +0x3
00001A0E  800601            add byte [rsi],0x1
00001A11  4883EE01          sub rsi,byte +0x1
00001A15  803E00            cmp byte [rsi],0x0
00001A18  75E6              jnz 0x1a00
00001A1A  4883C608          add rsi,byte +0x8
00001A1E  803E00            cmp byte [rsi],0x0
00001A21  75B8              jnz 0x19db
00001A23  4883EE09          sub rsi,byte +0x9
00001A27  803E00            cmp byte [rsi],0x0
00001A2A  7409              jz 0x1a35
00001A2C  4883EE09          sub rsi,byte +0x9
00001A30  803E00            cmp byte [rsi],0x0
00001A33  75F7              jnz 0x1a2c
00001A35  4883C609          add rsi,byte +0x9
00001A39  80060F            add byte [rsi],0xf
00001A3C  803E00            cmp byte [rsi],0x0
00001A3F  0F84CC000000      jz near 0x1b11
00001A45  803E00            cmp byte [rsi],0x0
00001A48  7409              jz 0x1a53
00001A4A  4883C609          add rsi,byte +0x9
00001A4E  803E00            cmp byte [rsi],0x0
00001A51  75F7              jnz 0x1a4a
00001A53  800601            add byte [rsi],0x1
00001A56  4883C601          add rsi,byte +0x1
00001A5A  803E00            cmp byte [rsi],0x0
00001A5D  7408              jz 0x1a67
00001A5F  802E01            sub byte [rsi],0x1
00001A62  803E00            cmp byte [rsi],0x0
00001A65  75F8              jnz 0x1a5f
00001A67  4883C601          add rsi,byte +0x1
00001A6B  803E00            cmp byte [rsi],0x0
00001A6E  7408              jz 0x1a78
00001A70  802E01            sub byte [rsi],0x1
00001A73  803E00            cmp byte [rsi],0x0
00001A76  75F8              jnz 0x1a70
00001A78  4883C601          add rsi,byte +0x1
00001A7C  803E00            cmp byte [rsi],0x0
00001A7F  7408              jz 0x1a89
00001A81  802E01            sub byte [rsi],0x1
00001A84  803E00            cmp byte [rsi],0x0
00001A87  75F8              jnz 0x1a81
00001A89  4883C601          add rsi,byte +0x1
00001A8D  803E00            cmp byte [rsi],0x0
00001A90  7408              jz 0x1a9a
00001A92  802E01            sub byte [rsi],0x1
00001A95  803E00            cmp byte [rsi],0x0
00001A98  75F8              jnz 0x1a92
00001A9A  4883C601          add rsi,byte +0x1
00001A9E  803E00            cmp byte [rsi],0x0
00001AA1  7408              jz 0x1aab
00001AA3  802E01            sub byte [rsi],0x1
00001AA6  803E00            cmp byte [rsi],0x0
00001AA9  75F8              jnz 0x1aa3
00001AAB  4883C601          add rsi,byte +0x1
00001AAF  803E00            cmp byte [rsi],0x0
00001AB2  7408              jz 0x1abc
00001AB4  802E01            sub byte [rsi],0x1
00001AB7  803E00            cmp byte [rsi],0x0
00001ABA  75F8              jnz 0x1ab4
00001ABC  4883C601          add rsi,byte +0x1
00001AC0  803E00            cmp byte [rsi],0x0
00001AC3  7408              jz 0x1acd
00001AC5  802E01            sub byte [rsi],0x1
00001AC8  803E00            cmp byte [rsi],0x0
00001ACB  75F8              jnz 0x1ac5
00001ACD  4883C601          add rsi,byte +0x1
00001AD1  803E00            cmp byte [rsi],0x0
00001AD4  7408              jz 0x1ade
00001AD6  802E01            sub byte [rsi],0x1
00001AD9  803E00            cmp byte [rsi],0x0
00001ADC  75F8              jnz 0x1ad6
00001ADE  4883C601          add rsi,byte +0x1
00001AE2  803E00            cmp byte [rsi],0x0
00001AE5  7408              jz 0x1aef
00001AE7  802E01            sub byte [rsi],0x1
00001AEA  803E00            cmp byte [rsi],0x0
00001AED  75F8              jnz 0x1ae7
00001AEF  4883EE09          sub rsi,byte +0x9
00001AF3  803E00            cmp byte [rsi],0x0
00001AF6  7409              jz 0x1b01
00001AF8  4883EE09          sub rsi,byte +0x9
00001AFC  803E00            cmp byte [rsi],0x0
00001AFF  75F7              jnz 0x1af8
00001B01  4883C609          add rsi,byte +0x9
00001B05  802E01            sub byte [rsi],0x1
00001B08  803E00            cmp byte [rsi],0x0
00001B0B  0F8534FFFFFF      jnz near 0x1a45
00001B11  800601            add byte [rsi],0x1
00001B14  803E00            cmp byte [rsi],0x0
00001B17  7410              jz 0x1b29
00001B19  4883C601          add rsi,byte +0x1
00001B1D  800601            add byte [rsi],0x1
00001B20  4883C608          add rsi,byte +0x8
00001B24  803E00            cmp byte [rsi],0x0
00001B27  75F0              jnz 0x1b19
00001B29  4883EE09          sub rsi,byte +0x9
00001B2D  803E00            cmp byte [rsi],0x0
00001B30  7409              jz 0x1b3b
00001B32  4883EE09          sub rsi,byte +0x9
00001B36  803E00            cmp byte [rsi],0x0
00001B39  75F7              jnz 0x1b32
00001B3B  4883C609          add rsi,byte +0x9
00001B3F  803E00            cmp byte [rsi],0x0
00001B42  0F8418010000      jz near 0x1c60
00001B48  4883C601          add rsi,byte +0x1
00001B4C  802E01            sub byte [rsi],0x1
00001B4F  4883C604          add rsi,byte +0x4
00001B53  803E00            cmp byte [rsi],0x0
00001B56  7413              jz 0x1b6b
00001B58  802E01            sub byte [rsi],0x1
00001B5B  4883EE04          sub rsi,byte +0x4
00001B5F  800601            add byte [rsi],0x1
00001B62  4883C604          add rsi,byte +0x4
00001B66  803E00            cmp byte [rsi],0x0
00001B69  75ED              jnz 0x1b58
00001B6B  4883EE04          sub rsi,byte +0x4
00001B6F  803E00            cmp byte [rsi],0x0
00001B72  0F8478000000      jz near 0x1bf0
00001B78  802E01            sub byte [rsi],0x1
00001B7B  4883C604          add rsi,byte +0x4
00001B7F  800601            add byte [rsi],0x1
00001B82  4883EE05          sub rsi,byte +0x5
00001B86  803E00            cmp byte [rsi],0x0
00001B89  744E              jz 0x1bd9
00001B8B  802E01            sub byte [rsi],0x1
00001B8E  4883C602          add rsi,byte +0x2
00001B92  803E00            cmp byte [rsi],0x0
00001B95  7413              jz 0x1baa
00001B97  802E01            sub byte [rsi],0x1
00001B9A  4883EE02          sub rsi,byte +0x2
00001B9E  800601            add byte [rsi],0x1
00001BA1  4883C602          add rsi,byte +0x2
00001BA5  803E00            cmp byte [rsi],0x0
00001BA8  75ED              jnz 0x1b97
00001BAA  4883EE02          sub rsi,byte +0x2
00001BAE  803E00            cmp byte [rsi],0x0
00001BB1  741A              jz 0x1bcd
00001BB3  802E01            sub byte [rsi],0x1
00001BB6  4883C602          add rsi,byte +0x2
00001BBA  800601            add byte [rsi],0x1
00001BBD  4883C601          add rsi,byte +0x1
00001BC1  800601            add byte [rsi],0x1
00001BC4  4883EE03          sub rsi,byte +0x3
00001BC8  803E00            cmp byte [rsi],0x0
00001BCB  75E6              jnz 0x1bb3
00001BCD  800601            add byte [rsi],0x1
00001BD0  4883C609          add rsi,byte +0x9
00001BD4  803E00            cmp byte [rsi],0x0
00001BD7  75B2              jnz 0x1b8b
00001BD9  4883EE08          sub rsi,byte +0x8
00001BDD  803E00            cmp byte [rsi],0x0
00001BE0  7409              jz 0x1beb
00001BE2  4883EE09          sub rsi,byte +0x9
00001BE6  803E00            cmp byte [rsi],0x0
00001BE9  75F7              jnz 0x1be2
00001BEB  803E00            cmp byte [rsi],0x0
00001BEE  7588              jnz 0x1b78
00001BF0  4883C609          add rsi,byte +0x9
00001BF4  803E00            cmp byte [rsi],0x0
00001BF7  7409              jz 0x1c02
00001BF9  4883C609          add rsi,byte +0x9
00001BFD  803E00            cmp byte [rsi],0x0
00001C00  75F7              jnz 0x1bf9
00001C02  4883EE09          sub rsi,byte +0x9
00001C06  803E00            cmp byte [rsi],0x0
00001C09  7425              jz 0x1c30
00001C0B  4883C601          add rsi,byte +0x1
00001C0F  803E00            cmp byte [rsi],0x0
00001C12  7413              jz 0x1c27
00001C14  802E01            sub byte [rsi],0x1
00001C17  4883C609          add rsi,byte +0x9
00001C1B  800601            add byte [rsi],0x1
00001C1E  4883EE09          sub rsi,byte +0x9
00001C22  803E00            cmp byte [rsi],0x0
00001C25  75ED              jnz 0x1c14
00001C27  4883EE0A          sub rsi,byte +0xa
00001C2B  803E00            cmp byte [rsi],0x0
00001C2E  75DB              jnz 0x1c0b
00001C30  4883C601          add rsi,byte +0x1
00001C34  803E00            cmp byte [rsi],0x0
00001C37  7413              jz 0x1c4c
00001C39  802E01            sub byte [rsi],0x1
00001C3C  4883C609          add rsi,byte +0x9
00001C40  800601            add byte [rsi],0x1
00001C43  4883EE09          sub rsi,byte +0x9
00001C47  803E00            cmp byte [rsi],0x0
00001C4A  75ED              jnz 0x1c39
00001C4C  4883EE01          sub rsi,byte +0x1
00001C50  800601            add byte [rsi],0x1
00001C53  4883C608          add rsi,byte +0x8
00001C57  803E00            cmp byte [rsi],0x0
00001C5A  0F85E8FEFFFF      jnz near 0x1b48
00001C60  4883EE09          sub rsi,byte +0x9
00001C64  803E00            cmp byte [rsi],0x0
00001C67  0F84A7000000      jz near 0x1d14
00001C6D  4883C601          add rsi,byte +0x1
00001C71  803E00            cmp byte [rsi],0x0
00001C74  7408              jz 0x1c7e
00001C76  802E01            sub byte [rsi],0x1
00001C79  803E00            cmp byte [rsi],0x0
00001C7C  75F8              jnz 0x1c76
00001C7E  4883EE01          sub rsi,byte +0x1
00001C82  802E01            sub byte [rsi],0x1
00001C85  4883C603          add rsi,byte +0x3
00001C89  803E00            cmp byte [rsi],0x0
00001C8C  7456              jz 0x1ce4
00001C8E  802E01            sub byte [rsi],0x1
00001C91  4883EE03          sub rsi,byte +0x3
00001C95  800601            add byte [rsi],0x1
00001C98  4883C601          add rsi,byte +0x1
00001C9C  803E00            cmp byte [rsi],0x0
00001C9F  741E              jz 0x1cbf
00001CA1  4883EE01          sub rsi,byte +0x1
00001CA5  802E01            sub byte [rsi],0x1
00001CA8  4883C601          add rsi,byte +0x1
00001CAC  802E01            sub byte [rsi],0x1
00001CAF  4883EE07          sub rsi,byte +0x7
00001CB3  800601            add byte [rsi],0x1
00001CB6  4883C607          add rsi,byte +0x7
00001CBA  803E00            cmp byte [rsi],0x0
00001CBD  75E2              jnz 0x1ca1
00001CBF  4883EE01          sub rsi,byte +0x1
00001CC3  803E00            cmp byte [rsi],0x0
00001CC6  7413              jz 0x1cdb
00001CC8  802E01            sub byte [rsi],0x1
00001CCB  4883C601          add rsi,byte +0x1
00001CCF  800601            add byte [rsi],0x1
00001CD2  4883EE01          sub rsi,byte +0x1
00001CD6  803E00            cmp byte [rsi],0x0
00001CD9  75ED              jnz 0x1cc8
00001CDB  4883C603          add rsi,byte +0x3
00001CDF  803E00            cmp byte [rsi],0x0
00001CE2  75AA              jnz 0x1c8e
00001CE4  4883EE02          sub rsi,byte +0x2
00001CE8  803E00            cmp byte [rsi],0x0
00001CEB  7413              jz 0x1d00
00001CED  802E01            sub byte [rsi],0x1
00001CF0  4883C602          add rsi,byte +0x2
00001CF4  800601            add byte [rsi],0x1
00001CF7  4883EE02          sub rsi,byte +0x2
00001CFB  803E00            cmp byte [rsi],0x0
00001CFE  75ED              jnz 0x1ced
00001D00  4883EE01          sub rsi,byte +0x1
00001D04  800601            add byte [rsi],0x1
00001D07  4883EE09          sub rsi,byte +0x9
00001D0B  803E00            cmp byte [rsi],0x0
00001D0E  0F8559FFFFFF      jnz near 0x1c6d
00001D14  4883C609          add rsi,byte +0x9
00001D18  803E00            cmp byte [rsi],0x0
00001D1B  7425              jz 0x1d42
00001D1D  4883C603          add rsi,byte +0x3
00001D21  803E00            cmp byte [rsi],0x0
00001D24  7413              jz 0x1d39
00001D26  802E01            sub byte [rsi],0x1
00001D29  4883EE24          sub rsi,byte +0x24
00001D2D  800601            add byte [rsi],0x1
00001D30  4883C624          add rsi,byte +0x24
00001D34  803E00            cmp byte [rsi],0x0
00001D37  75ED              jnz 0x1d26
00001D39  4883C606          add rsi,byte +0x6
00001D3D  803E00            cmp byte [rsi],0x0
00001D40  75DB              jnz 0x1d1d
00001D42  4883EE09          sub rsi,byte +0x9
00001D46  803E00            cmp byte [rsi],0x0
00001D49  7409              jz 0x1d54
00001D4B  4883EE09          sub rsi,byte +0x9
00001D4F  803E00            cmp byte [rsi],0x0
00001D52  75F7              jnz 0x1d4b
00001D54  4883C605          add rsi,byte +0x5
00001D58  803E00            cmp byte [rsi],0x0
00001D5B  7408              jz 0x1d65
00001D5D  802E01            sub byte [rsi],0x1
00001D60  803E00            cmp byte [rsi],0x0
00001D63  75F8              jnz 0x1d5d
00001D65  4883C604          add rsi,byte +0x4
00001D69  80060F            add byte [rsi],0xf
00001D6C  803E00            cmp byte [rsi],0x0
00001D6F  7433              jz 0x1da4
00001D71  803E00            cmp byte [rsi],0x0
00001D74  7409              jz 0x1d7f
00001D76  4883C609          add rsi,byte +0x9
00001D7A  803E00            cmp byte [rsi],0x0
00001D7D  75F7              jnz 0x1d76
00001D7F  4883EE09          sub rsi,byte +0x9
00001D83  802E01            sub byte [rsi],0x1
00001D86  4883EE09          sub rsi,byte +0x9
00001D8A  803E00            cmp byte [rsi],0x0
00001D8D  7409              jz 0x1d98
00001D8F  4883EE09          sub rsi,byte +0x9
00001D93  803E00            cmp byte [rsi],0x0
00001D96  75F7              jnz 0x1d8f
00001D98  4883C609          add rsi,byte +0x9
00001D9C  802E01            sub byte [rsi],0x1
00001D9F  803E00            cmp byte [rsi],0x0
00001DA2  75CD              jnz 0x1d71
00001DA4  800601            add byte [rsi],0x1
00001DA7  803E00            cmp byte [rsi],0x0
00001DAA  0F84B7010000      jz near 0x1f67
00001DB0  4883C603          add rsi,byte +0x3
00001DB4  803E00            cmp byte [rsi],0x0
00001DB7  7413              jz 0x1dcc
00001DB9  802E01            sub byte [rsi],0x1
00001DBC  4883EE03          sub rsi,byte +0x3
00001DC0  802E01            sub byte [rsi],0x1
00001DC3  4883C603          add rsi,byte +0x3
00001DC7  803E00            cmp byte [rsi],0x0
00001DCA  75ED              jnz 0x1db9
00001DCC  800601            add byte [rsi],0x1
00001DCF  4883EE03          sub rsi,byte +0x3
00001DD3  803E00            cmp byte [rsi],0x0
00001DD6  0F848A000000      jz near 0x1e66
00001DDC  802E01            sub byte [rsi],0x1
00001DDF  4883C603          add rsi,byte +0x3
00001DE3  802E01            sub byte [rsi],0x1
00001DE6  4883C601          add rsi,byte +0x1
00001DEA  803E00            cmp byte [rsi],0x0
00001DED  7413              jz 0x1e02
00001DEF  802E01            sub byte [rsi],0x1
00001DF2  4883EE04          sub rsi,byte +0x4
00001DF6  800601            add byte [rsi],0x1
00001DF9  4883C604          add rsi,byte +0x4
00001DFD  803E00            cmp byte [rsi],0x0
00001E00  75ED              jnz 0x1def
00001E02  4883EE04          sub rsi,byte +0x4
00001E06  803E00            cmp byte [rsi],0x0
00001E09  7452              jz 0x1e5d
00001E0B  802E01            sub byte [rsi],0x1
00001E0E  4883C604          add rsi,byte +0x4
00001E12  800601            add byte [rsi],0x1
00001E15  4883EE0D          sub rsi,byte +0xd
00001E19  803E00            cmp byte [rsi],0x0
00001E1C  7409              jz 0x1e27
00001E1E  4883EE09          sub rsi,byte +0x9
00001E22  803E00            cmp byte [rsi],0x0
00001E25  75F7              jnz 0x1e1e
00001E27  4883C604          add rsi,byte +0x4
00001E2B  803E00            cmp byte [rsi],0x0
00001E2E  7408              jz 0x1e38
00001E30  802E01            sub byte [rsi],0x1
00001E33  803E00            cmp byte [rsi],0x0
00001E36  75F8              jnz 0x1e30
00001E38  800601            add byte [rsi],0x1
00001E3B  4883C605          add rsi,byte +0x5
00001E3F  803E00            cmp byte [rsi],0x0
00001E42  7409              jz 0x1e4d
00001E44  4883C609          add rsi,byte +0x9
00001E48  803E00            cmp byte [rsi],0x0
00001E4B  75F7              jnz 0x1e44
00001E4D  4883C601          add rsi,byte +0x1
00001E51  800601            add byte [rsi],0x1
00001E54  4883EE01          sub rsi,byte +0x1
00001E58  803E00            cmp byte [rsi],0x0
00001E5B  75AE              jnz 0x1e0b
00001E5D  803E00            cmp byte [rsi],0x0
00001E60  0F8576FFFFFF      jnz near 0x1ddc
00001E66  800601            add byte [rsi],0x1
00001E69  4883C604          add rsi,byte +0x4
00001E6D  803E00            cmp byte [rsi],0x0
00001E70  7413              jz 0x1e85
00001E72  802E01            sub byte [rsi],0x1
00001E75  4883EE04          sub rsi,byte +0x4
00001E79  802E01            sub byte [rsi],0x1
00001E7C  4883C604          add rsi,byte +0x4
00001E80  803E00            cmp byte [rsi],0x0
00001E83  75ED              jnz 0x1e72
00001E85  800601            add byte [rsi],0x1
00001E88  4883EE04          sub rsi,byte +0x4
00001E8C  803E00            cmp byte [rsi],0x0
00001E8F  0F849B000000      jz near 0x1f30
00001E95  802E01            sub byte [rsi],0x1
00001E98  4883C604          add rsi,byte +0x4
00001E9C  802E01            sub byte [rsi],0x1
00001E9F  4883EE01          sub rsi,byte +0x1
00001EA3  803E00            cmp byte [rsi],0x0
00001EA6  7413              jz 0x1ebb
00001EA8  802E01            sub byte [rsi],0x1
00001EAB  4883EE03          sub rsi,byte +0x3
00001EAF  800601            add byte [rsi],0x1
00001EB2  4883C603          add rsi,byte +0x3
00001EB6  803E00            cmp byte [rsi],0x0
00001EB9  75ED              jnz 0x1ea8
00001EBB  4883EE03          sub rsi,byte +0x3
00001EBF  803E00            cmp byte [rsi],0x0
00001EC2  0F845F000000      jz near 0x1f27
00001EC8  802E01            sub byte [rsi],0x1
00001ECB  4883C603          add rsi,byte +0x3
00001ECF  800601            add byte [rsi],0x1
00001ED2  4883EE0C          sub rsi,byte +0xc
00001ED6  803E00            cmp byte [rsi],0x0
00001ED9  7409              jz 0x1ee4
00001EDB  4883EE09          sub rsi,byte +0x9
00001EDF  803E00            cmp byte [rsi],0x0
00001EE2  75F7              jnz 0x1edb
00001EE4  4883C603          add rsi,byte +0x3
00001EE8  803E00            cmp byte [rsi],0x0
00001EEB  7408              jz 0x1ef5
00001EED  802E01            sub byte [rsi],0x1
00001EF0  803E00            cmp byte [rsi],0x0
00001EF3  75F8              jnz 0x1eed
00001EF5  800601            add byte [rsi],0x1
00001EF8  4883C606          add rsi,byte +0x6
00001EFC  803E00            cmp byte [rsi],0x0
00001EFF  7409              jz 0x1f0a
00001F01  4883C609          add rsi,byte +0x9
00001F05  803E00            cmp byte [rsi],0x0
00001F08  75F7              jnz 0x1f01
00001F0A  4883C601          add rsi,byte +0x1
00001F0E  803E00            cmp byte [rsi],0x0
00001F11  7408              jz 0x1f1b
00001F13  802E01            sub byte [rsi],0x1
00001F16  803E00            cmp byte [rsi],0x0
00001F19  75F8              jnz 0x1f13
00001F1B  800601            add byte [rsi],0x1
00001F1E  4883EE01          sub rsi,byte +0x1
00001F22  803E00            cmp byte [rsi],0x0
00001F25  75A1              jnz 0x1ec8
00001F27  803E00            cmp byte [rsi],0x0
00001F2A  0F8565FFFFFF      jnz near 0x1e95
00001F30  800601            add byte [rsi],0x1
00001F33  4883C601          add rsi,byte +0x1
00001F37  803E00            cmp byte [rsi],0x0
00001F3A  741E              jz 0x1f5a
00001F3C  802E01            sub byte [rsi],0x1
00001F3F  4883EE01          sub rsi,byte +0x1
00001F43  803E00            cmp byte [rsi],0x0
00001F46  7409              jz 0x1f51
00001F48  4883C609          add rsi,byte +0x9
00001F4C  803E00            cmp byte [rsi],0x0
00001F4F  75F7              jnz 0x1f48
00001F51  4883EE08          sub rsi,byte +0x8
00001F55  803E00            cmp byte [rsi],0x0
00001F58  75E2              jnz 0x1f3c
00001F5A  4883C608          add rsi,byte +0x8
00001F5E  803E00            cmp byte [rsi],0x0
00001F61  0F8549FEFFFF      jnz near 0x1db0
00001F67  4883EE09          sub rsi,byte +0x9
00001F6B  803E00            cmp byte [rsi],0x0
00001F6E  7409              jz 0x1f79
00001F70  4883EE09          sub rsi,byte +0x9
00001F74  803E00            cmp byte [rsi],0x0
00001F77  75F7              jnz 0x1f70
00001F79  4883C603          add rsi,byte +0x3
00001F7D  803E00            cmp byte [rsi],0x0
00001F80  7413              jz 0x1f95
00001F82  802E01            sub byte [rsi],0x1
00001F85  4883EE03          sub rsi,byte +0x3
00001F89  800601            add byte [rsi],0x1
00001F8C  4883C603          add rsi,byte +0x3
00001F90  803E00            cmp byte [rsi],0x0
00001F93  75ED              jnz 0x1f82
00001F95  4883EE03          sub rsi,byte +0x3
00001F99  803E00            cmp byte [rsi],0x0
00001F9C  0F8462010000      jz near 0x2104
00001FA2  802E01            sub byte [rsi],0x1
00001FA5  4883C603          add rsi,byte +0x3
00001FA9  800601            add byte [rsi],0x1
00001FAC  4883C606          add rsi,byte +0x6
00001FB0  803E00            cmp byte [rsi],0x0
00001FB3  7448              jz 0x1ffd
00001FB5  4883C601          add rsi,byte +0x1
00001FB9  800601            add byte [rsi],0x1
00001FBC  4883C603          add rsi,byte +0x3
00001FC0  803E00            cmp byte [rsi],0x0
00001FC3  7413              jz 0x1fd8
00001FC5  802E01            sub byte [rsi],0x1
00001FC8  4883EE03          sub rsi,byte +0x3
00001FCC  802E01            sub byte [rsi],0x1
00001FCF  4883C603          add rsi,byte +0x3
00001FD3  803E00            cmp byte [rsi],0x0
00001FD6  75ED              jnz 0x1fc5
00001FD8  4883EE03          sub rsi,byte +0x3
00001FDC  803E00            cmp byte [rsi],0x0
00001FDF  7413              jz 0x1ff4
00001FE1  802E01            sub byte [rsi],0x1
00001FE4  4883C603          add rsi,byte +0x3
00001FE8  800601            add byte [rsi],0x1
00001FEB  4883EE03          sub rsi,byte +0x3
00001FEF  803E00            cmp byte [rsi],0x0
00001FF2  75ED              jnz 0x1fe1
00001FF4  4883C608          add rsi,byte +0x8
00001FF8  803E00            cmp byte [rsi],0x0
00001FFB  75B8              jnz 0x1fb5
00001FFD  4883EE08          sub rsi,byte +0x8
00002001  800601            add byte [rsi],0x1
00002004  4883EE01          sub rsi,byte +0x1
00002008  803E00            cmp byte [rsi],0x0
0000200B  0F84EA000000      jz near 0x20fb
00002011  4883C601          add rsi,byte +0x1
00002015  803E00            cmp byte [rsi],0x0
00002018  0F8475000000      jz near 0x2093
0000201E  802E01            sub byte [rsi],0x1
00002021  4883C601          add rsi,byte +0x1
00002025  800601            add byte [rsi],0x1
00002028  4883C601          add rsi,byte +0x1
0000202C  803E00            cmp byte [rsi],0x0
0000202F  7436              jz 0x2067
00002031  802E01            sub byte [rsi],0x1
00002034  4883EE01          sub rsi,byte +0x1
00002038  802E01            sub byte [rsi],0x1
0000203B  4883EE0A          sub rsi,byte +0xa
0000203F  800601            add byte [rsi],0x1
00002042  4883C60C          add rsi,byte +0xc
00002046  803E00            cmp byte [rsi],0x0
00002049  7413              jz 0x205e
0000204B  802E01            sub byte [rsi],0x1
0000204E  4883EE02          sub rsi,byte +0x2
00002052  800601            add byte [rsi],0x1
00002055  4883C602          add rsi,byte +0x2
00002059  803E00            cmp byte [rsi],0x0
0000205C  75ED              jnz 0x204b
0000205E  4883EE01          sub rsi,byte +0x1
00002062  803E00            cmp byte [rsi],0x0
00002065  75CA              jnz 0x2031
00002067  4883C601          add rsi,byte +0x1
0000206B  803E00            cmp byte [rsi],0x0
0000206E  741A              jz 0x208a
00002070  802E01            sub byte [rsi],0x1
00002073  4883EE02          sub rsi,byte +0x2
00002077  802E01            sub byte [rsi],0x1
0000207A  4883EE0A          sub rsi,byte +0xa
0000207E  800601            add byte [rsi],0x1
00002081  4883C60C          add rsi,byte +0xc
00002085  803E00            cmp byte [rsi],0x0
00002088  75E6              jnz 0x2070
0000208A  4883EE03          sub rsi,byte +0x3
0000208E  803E00            cmp byte [rsi],0x0
00002091  758B              jnz 0x201e
00002093  4883C602          add rsi,byte +0x2
00002097  803E00            cmp byte [rsi],0x0
0000209A  7436              jz 0x20d2
0000209C  802E01            sub byte [rsi],0x1
0000209F  4883EE01          sub rsi,byte +0x1
000020A3  800601            add byte [rsi],0x1
000020A6  4883C602          add rsi,byte +0x2
000020AA  803E00            cmp byte [rsi],0x0
000020AD  741A              jz 0x20c9
000020AF  802E01            sub byte [rsi],0x1
000020B2  4883EE02          sub rsi,byte +0x2
000020B6  802E01            sub byte [rsi],0x1
000020B9  4883EE0A          sub rsi,byte +0xa
000020BD  800601            add byte [rsi],0x1
000020C0  4883C60C          add rsi,byte +0xc
000020C4  803E00            cmp byte [rsi],0x0
000020C7  75E6              jnz 0x20af
000020C9  4883EE01          sub rsi,byte +0x1
000020CD  803E00            cmp byte [rsi],0x0
000020D0  75CA              jnz 0x209c
000020D2  4883C601          add rsi,byte +0x1
000020D6  803E00            cmp byte [rsi],0x0
000020D9  7413              jz 0x20ee
000020DB  802E01            sub byte [rsi],0x1
000020DE  4883EE02          sub rsi,byte +0x2
000020E2  800601            add byte [rsi],0x1
000020E5  4883C602          add rsi,byte +0x2
000020E9  803E00            cmp byte [rsi],0x0
000020EC  75ED              jnz 0x20db
000020EE  4883EE0D          sub rsi,byte +0xd
000020F2  803E00            cmp byte [rsi],0x0
000020F5  0F8516FFFFFF      jnz near 0x2011
000020FB  803E00            cmp byte [rsi],0x0
000020FE  0F859EFEFFFF      jnz near 0x1fa2
00002104  4883C604          add rsi,byte +0x4
00002108  803E00            cmp byte [rsi],0x0
0000210B  7413              jz 0x2120
0000210D  802E01            sub byte [rsi],0x1
00002110  4883EE04          sub rsi,byte +0x4
00002114  800601            add byte [rsi],0x1
00002117  4883C604          add rsi,byte +0x4
0000211B  803E00            cmp byte [rsi],0x0
0000211E  75ED              jnz 0x210d
00002120  4883EE04          sub rsi,byte +0x4
00002124  803E00            cmp byte [rsi],0x0
00002127  0F846D010000      jz near 0x229a
0000212D  802E01            sub byte [rsi],0x1
00002130  4883C604          add rsi,byte +0x4
00002134  800601            add byte [rsi],0x1
00002137  4883C605          add rsi,byte +0x5
0000213B  803E00            cmp byte [rsi],0x0
0000213E  7448              jz 0x2188
00002140  4883C601          add rsi,byte +0x1
00002144  800601            add byte [rsi],0x1
00002147  4883C602          add rsi,byte +0x2
0000214B  803E00            cmp byte [rsi],0x0
0000214E  7413              jz 0x2163
00002150  802E01            sub byte [rsi],0x1
00002153  4883EE02          sub rsi,byte +0x2
00002157  802E01            sub byte [rsi],0x1
0000215A  4883C602          add rsi,byte +0x2
0000215E  803E00            cmp byte [rsi],0x0
00002161  75ED              jnz 0x2150
00002163  4883EE02          sub rsi,byte +0x2
00002167  803E00            cmp byte [rsi],0x0
0000216A  7413              jz 0x217f
0000216C  802E01            sub byte [rsi],0x1
0000216F  4883C602          add rsi,byte +0x2
00002173  800601            add byte [rsi],0x1
00002176  4883EE02          sub rsi,byte +0x2
0000217A  803E00            cmp byte [rsi],0x0
0000217D  75ED              jnz 0x216c
0000217F  4883C608          add rsi,byte +0x8
00002183  803E00            cmp byte [rsi],0x0
00002186  75B8              jnz 0x2140
00002188  4883EE08          sub rsi,byte +0x8
0000218C  800601            add byte [rsi],0x1
0000218F  4883EE01          sub rsi,byte +0x1
00002193  803E00            cmp byte [rsi],0x0
00002196  0F84EA000000      jz near 0x2286
0000219C  4883C601          add rsi,byte +0x1
000021A0  803E00            cmp byte [rsi],0x0
000021A3  0F8475000000      jz near 0x221e
000021A9  802E01            sub byte [rsi],0x1
000021AC  4883C601          add rsi,byte +0x1
000021B0  800601            add byte [rsi],0x1
000021B3  4883C602          add rsi,byte +0x2
000021B7  803E00            cmp byte [rsi],0x0
000021BA  7436              jz 0x21f2
000021BC  802E01            sub byte [rsi],0x1
000021BF  4883EE02          sub rsi,byte +0x2
000021C3  802E01            sub byte [rsi],0x1
000021C6  4883EE0A          sub rsi,byte +0xa
000021CA  800601            add byte [rsi],0x1
000021CD  4883C60B          add rsi,byte +0xb
000021D1  803E00            cmp byte [rsi],0x0
000021D4  7413              jz 0x21e9
000021D6  802E01            sub byte [rsi],0x1
000021D9  4883EE01          sub rsi,byte +0x1
000021DD  800601            add byte [rsi],0x1
000021E0  4883C601          add rsi,byte +0x1
000021E4  803E00            cmp byte [rsi],0x0
000021E7  75ED              jnz 0x21d6
000021E9  4883C601          add rsi,byte +0x1
000021ED  803E00            cmp byte [rsi],0x0
000021F0  75CA              jnz 0x21bc
000021F2  4883EE01          sub rsi,byte +0x1
000021F6  803E00            cmp byte [rsi],0x0
000021F9  741A              jz 0x2215
000021FB  802E01            sub byte [rsi],0x1
000021FE  4883EE01          sub rsi,byte +0x1
00002202  802E01            sub byte [rsi],0x1
00002205  4883EE0A          sub rsi,byte +0xa
00002209  800601            add byte [rsi],0x1
0000220C  4883C60B          add rsi,byte +0xb
00002210  803E00            cmp byte [rsi],0x0
00002213  75E6              jnz 0x21fb
00002215  4883EE02          sub rsi,byte +0x2
00002219  803E00            cmp byte [rsi],0x0
0000221C  758B              jnz 0x21a9
0000221E  4883C603          add rsi,byte +0x3
00002222  803E00            cmp byte [rsi],0x0
00002225  7436              jz 0x225d
00002227  802E01            sub byte [rsi],0x1
0000222A  4883EE02          sub rsi,byte +0x2
0000222E  800601            add byte [rsi],0x1
00002231  4883C601          add rsi,byte +0x1
00002235  803E00            cmp byte [rsi],0x0
00002238  741A              jz 0x2254
0000223A  802E01            sub byte [rsi],0x1
0000223D  4883EE01          sub rsi,byte +0x1
00002241  802E01            sub byte [rsi],0x1
00002244  4883EE0A          sub rsi,byte +0xa
00002248  800601            add byte [rsi],0x1
0000224B  4883C60B          add rsi,byte +0xb
0000224F  803E00            cmp byte [rsi],0x0
00002252  75E6              jnz 0x223a
00002254  4883C601          add rsi,byte +0x1
00002258  803E00            cmp byte [rsi],0x0
0000225B  75CA              jnz 0x2227
0000225D  4883EE01          sub rsi,byte +0x1
00002261  803E00            cmp byte [rsi],0x0
00002264  7413              jz 0x2279
00002266  802E01            sub byte [rsi],0x1
00002269  4883EE01          sub rsi,byte +0x1
0000226D  800601            add byte [rsi],0x1
00002270  4883C601          add rsi,byte +0x1
00002274  803E00            cmp byte [rsi],0x0
00002277  75ED              jnz 0x2266
00002279  4883EE0C          sub rsi,byte +0xc
0000227D  803E00            cmp byte [rsi],0x0
00002280  0F8516FFFFFF      jnz near 0x219c
00002286  4883C605          add rsi,byte +0x5
0000228A  800601            add byte [rsi],0x1
0000228D  4883EE05          sub rsi,byte +0x5
00002291  803E00            cmp byte [rsi],0x0
00002294  0F8593FEFFFF      jnz near 0x212d
0000229A  4883C609          add rsi,byte +0x9
0000229E  803E00            cmp byte [rsi],0x0
000022A1  743C              jz 0x22df
000022A3  4883C603          add rsi,byte +0x3
000022A7  803E00            cmp byte [rsi],0x0
000022AA  7408              jz 0x22b4
000022AC  802E01            sub byte [rsi],0x1
000022AF  803E00            cmp byte [rsi],0x0
000022B2  75F8              jnz 0x22ac
000022B4  4883C601          add rsi,byte +0x1
000022B8  803E00            cmp byte [rsi],0x0
000022BB  7408              jz 0x22c5
000022BD  802E01            sub byte [rsi],0x1
000022C0  803E00            cmp byte [rsi],0x0
000022C3  75F8              jnz 0x22bd
000022C5  4883C601          add rsi,byte +0x1
000022C9  803E00            cmp byte [rsi],0x0
000022CC  7408              jz 0x22d6
000022CE  802E01            sub byte [rsi],0x1
000022D1  803E00            cmp byte [rsi],0x0
000022D4  75F8              jnz 0x22ce
000022D6  4883C604          add rsi,byte +0x4
000022DA  803E00            cmp byte [rsi],0x0
000022DD  75C4              jnz 0x22a3
000022DF  4883EE09          sub rsi,byte +0x9
000022E3  803E00            cmp byte [rsi],0x0
000022E6  7409              jz 0x22f1
000022E8  4883EE09          sub rsi,byte +0x9
000022EC  803E00            cmp byte [rsi],0x0
000022EF  75F7              jnz 0x22e8
000022F1  4883C603          add rsi,byte +0x3
000022F5  803E00            cmp byte [rsi],0x0
000022F8  7408              jz 0x2302
000022FA  802E01            sub byte [rsi],0x1
000022FD  803E00            cmp byte [rsi],0x0
00002300  75F8              jnz 0x22fa
00002302  4883C601          add rsi,byte +0x1
00002306  803E00            cmp byte [rsi],0x0
00002309  7408              jz 0x2313
0000230B  802E01            sub byte [rsi],0x1
0000230E  803E00            cmp byte [rsi],0x0
00002311  75F8              jnz 0x230b
00002313  4883C605          add rsi,byte +0x5
00002317  803E00            cmp byte [rsi],0x0
0000231A  7448              jz 0x2364
0000231C  4883C607          add rsi,byte +0x7
00002320  803E00            cmp byte [rsi],0x0
00002323  7413              jz 0x2338
00002325  802E01            sub byte [rsi],0x1
00002328  4883EE06          sub rsi,byte +0x6
0000232C  800601            add byte [rsi],0x1
0000232F  4883C606          add rsi,byte +0x6
00002333  803E00            cmp byte [rsi],0x0
00002336  75ED              jnz 0x2325
00002338  4883EE06          sub rsi,byte +0x6
0000233C  803E00            cmp byte [rsi],0x0
0000233F  741A              jz 0x235b
00002341  802E01            sub byte [rsi],0x1
00002344  4883C606          add rsi,byte +0x6
00002348  800601            add byte [rsi],0x1
0000234B  4883EE04          sub rsi,byte +0x4
0000234F  800601            add byte [rsi],0x1
00002352  4883EE02          sub rsi,byte +0x2
00002356  803E00            cmp byte [rsi],0x0
00002359  75E6              jnz 0x2341
0000235B  4883C608          add rsi,byte +0x8
0000235F  803E00            cmp byte [rsi],0x0
00002362  75B8              jnz 0x231c
00002364  4883EE09          sub rsi,byte +0x9
00002368  803E00            cmp byte [rsi],0x0
0000236B  7409              jz 0x2376
0000236D  4883EE09          sub rsi,byte +0x9
00002371  803E00            cmp byte [rsi],0x0
00002374  75F7              jnz 0x236d
00002376  4883C604          add rsi,byte +0x4
0000237A  800601            add byte [rsi],0x1
0000237D  4883C601          add rsi,byte +0x1
00002381  803E00            cmp byte [rsi],0x0
00002384  741A              jz 0x23a0
00002386  802E01            sub byte [rsi],0x1
00002389  4883EE01          sub rsi,byte +0x1
0000238D  802E01            sub byte [rsi],0x1
00002390  4883EE04          sub rsi,byte +0x4
00002394  800601            add byte [rsi],0x1
00002397  4883C605          add rsi,byte +0x5
0000239B  803E00            cmp byte [rsi],0x0
0000239E  75E6              jnz 0x2386
000023A0  4883C602          add rsi,byte +0x2
000023A4  803E00            cmp byte [rsi],0x0
000023A7  7459              jz 0x2402
000023A9  802E01            sub byte [rsi],0x1
000023AC  4883EE07          sub rsi,byte +0x7
000023B0  803E00            cmp byte [rsi],0x0
000023B3  741A              jz 0x23cf
000023B5  802E01            sub byte [rsi],0x1
000023B8  4883C605          add rsi,byte +0x5
000023BC  800601            add byte [rsi],0x1
000023BF  4883EE01          sub rsi,byte +0x1
000023C3  800602            add byte [rsi],0x2
000023C6  4883EE04          sub rsi,byte +0x4
000023CA  803E00            cmp byte [rsi],0x0
000023CD  75E6              jnz 0x23b5
000023CF  4883C605          add rsi,byte +0x5
000023D3  803E00            cmp byte [rsi],0x0
000023D6  7413              jz 0x23eb
000023D8  802E01            sub byte [rsi],0x1
000023DB  4883EE05          sub rsi,byte +0x5
000023DF  800601            add byte [rsi],0x1
000023E2  4883C605          add rsi,byte +0x5
000023E6  803E00            cmp byte [rsi],0x0
000023E9  75ED              jnz 0x23d8
000023EB  4883EE01          sub rsi,byte +0x1
000023EF  802E01            sub byte [rsi],0x1
000023F2  4883C601          add rsi,byte +0x1
000023F6  800601            add byte [rsi],0x1
000023F9  4883C602          add rsi,byte +0x2
000023FD  803E00            cmp byte [rsi],0x0
00002400  75A7              jnz 0x23a9
00002402  4883EE02          sub rsi,byte +0x2
00002406  803E00            cmp byte [rsi],0x0
00002409  7413              jz 0x241e
0000240B  802E01            sub byte [rsi],0x1
0000240E  4883C602          add rsi,byte +0x2
00002412  800601            add byte [rsi],0x1
00002415  4883EE02          sub rsi,byte +0x2
00002419  803E00            cmp byte [rsi],0x0
0000241C  75ED              jnz 0x240b
0000241E  4883EE05          sub rsi,byte +0x5
00002422  803E00            cmp byte [rsi],0x0
00002425  7413              jz 0x243a
00002427  802E01            sub byte [rsi],0x1
0000242A  4883C605          add rsi,byte +0x5
0000242E  800601            add byte [rsi],0x1
00002431  4883EE05          sub rsi,byte +0x5
00002435  803E00            cmp byte [rsi],0x0
00002438  75ED              jnz 0x2427
0000243A  800601            add byte [rsi],0x1
0000243D  4883C604          add rsi,byte +0x4
00002441  803E00            cmp byte [rsi],0x0
00002444  7413              jz 0x2459
00002446  802E01            sub byte [rsi],0x1
00002449  4883EE04          sub rsi,byte +0x4
0000244D  802E01            sub byte [rsi],0x1
00002450  4883C604          add rsi,byte +0x4
00002454  803E00            cmp byte [rsi],0x0
00002457  75ED              jnz 0x2446
00002459  800601            add byte [rsi],0x1
0000245C  4883EE04          sub rsi,byte +0x4
00002460  803E00            cmp byte [rsi],0x0
00002463  0F8464050000      jz near 0x29cd
00002469  802E01            sub byte [rsi],0x1
0000246C  4883C604          add rsi,byte +0x4
00002470  802E01            sub byte [rsi],0x1
00002473  4883C605          add rsi,byte +0x5
00002477  803E00            cmp byte [rsi],0x0
0000247A  0F84B7010000      jz near 0x2637
00002480  4883C603          add rsi,byte +0x3
00002484  803E00            cmp byte [rsi],0x0
00002487  7413              jz 0x249c
00002489  802E01            sub byte [rsi],0x1
0000248C  4883EE03          sub rsi,byte +0x3
00002490  802E01            sub byte [rsi],0x1
00002493  4883C603          add rsi,byte +0x3
00002497  803E00            cmp byte [rsi],0x0
0000249A  75ED              jnz 0x2489
0000249C  800601            add byte [rsi],0x1
0000249F  4883EE03          sub rsi,byte +0x3
000024A3  803E00            cmp byte [rsi],0x0
000024A6  0F848A000000      jz near 0x2536
000024AC  802E01            sub byte [rsi],0x1
000024AF  4883C603          add rsi,byte +0x3
000024B3  802E01            sub byte [rsi],0x1
000024B6  4883EE01          sub rsi,byte +0x1
000024BA  803E00            cmp byte [rsi],0x0
000024BD  7413              jz 0x24d2
000024BF  802E01            sub byte [rsi],0x1
000024C2  4883EE02          sub rsi,byte +0x2
000024C6  800601            add byte [rsi],0x1
000024C9  4883C602          add rsi,byte +0x2
000024CD  803E00            cmp byte [rsi],0x0
000024D0  75ED              jnz 0x24bf
000024D2  4883EE02          sub rsi,byte +0x2
000024D6  803E00            cmp byte [rsi],0x0
000024D9  7452              jz 0x252d
000024DB  802E01            sub byte [rsi],0x1
000024DE  4883C602          add rsi,byte +0x2
000024E2  800601            add byte [rsi],0x1
000024E5  4883EE0B          sub rsi,byte +0xb
000024E9  803E00            cmp byte [rsi],0x0
000024EC  7409              jz 0x24f7
000024EE  4883EE09          sub rsi,byte +0x9
000024F2  803E00            cmp byte [rsi],0x0
000024F5  75F7              jnz 0x24ee
000024F7  4883C604          add rsi,byte +0x4
000024FB  803E00            cmp byte [rsi],0x0
000024FE  7408              jz 0x2508
00002500  802E01            sub byte [rsi],0x1
00002503  803E00            cmp byte [rsi],0x0
00002506  75F8              jnz 0x2500
00002508  800601            add byte [rsi],0x1
0000250B  4883C605          add rsi,byte +0x5
0000250F  803E00            cmp byte [rsi],0x0
00002512  7409              jz 0x251d
00002514  4883C609          add rsi,byte +0x9
00002518  803E00            cmp byte [rsi],0x0
0000251B  75F7              jnz 0x2514
0000251D  4883C601          add rsi,byte +0x1
00002521  800601            add byte [rsi],0x1
00002524  4883EE01          sub rsi,byte +0x1
00002528  803E00            cmp byte [rsi],0x0
0000252B  75AE              jnz 0x24db
0000252D  803E00            cmp byte [rsi],0x0
00002530  0F8576FFFFFF      jnz near 0x24ac
00002536  800601            add byte [rsi],0x1
00002539  4883C602          add rsi,byte +0x2
0000253D  803E00            cmp byte [rsi],0x0
00002540  7413              jz 0x2555
00002542  802E01            sub byte [rsi],0x1
00002545  4883EE02          sub rsi,byte +0x2
00002549  802E01            sub byte [rsi],0x1
0000254C  4883C602          add rsi,byte +0x2
00002550  803E00            cmp byte [rsi],0x0
00002553  75ED              jnz 0x2542
00002555  800601            add byte [rsi],0x1
00002558  4883EE02          sub rsi,byte +0x2
0000255C  803E00            cmp byte [rsi],0x0
0000255F  0F849B000000      jz near 0x2600
00002565  802E01            sub byte [rsi],0x1
00002568  4883C602          add rsi,byte +0x2
0000256C  802E01            sub byte [rsi],0x1
0000256F  4883C601          add rsi,byte +0x1
00002573  803E00            cmp byte [rsi],0x0
00002576  7413              jz 0x258b
00002578  802E01            sub byte [rsi],0x1
0000257B  4883EE03          sub rsi,byte +0x3
0000257F  800601            add byte [rsi],0x1
00002582  4883C603          add rsi,byte +0x3
00002586  803E00            cmp byte [rsi],0x0
00002589  75ED              jnz 0x2578
0000258B  4883EE03          sub rsi,byte +0x3
0000258F  803E00            cmp byte [rsi],0x0
00002592  0F845F000000      jz near 0x25f7
00002598  802E01            sub byte [rsi],0x1
0000259B  4883C603          add rsi,byte +0x3
0000259F  800601            add byte [rsi],0x1
000025A2  4883EE0C          sub rsi,byte +0xc
000025A6  803E00            cmp byte [rsi],0x0
000025A9  7409              jz 0x25b4
000025AB  4883EE09          sub rsi,byte +0x9
000025AF  803E00            cmp byte [rsi],0x0
000025B2  75F7              jnz 0x25ab
000025B4  4883C603          add rsi,byte +0x3
000025B8  803E00            cmp byte [rsi],0x0
000025BB  7408              jz 0x25c5
000025BD  802E01            sub byte [rsi],0x1
000025C0  803E00            cmp byte [rsi],0x0
000025C3  75F8              jnz 0x25bd
000025C5  800601            add byte [rsi],0x1
000025C8  4883C606          add rsi,byte +0x6
000025CC  803E00            cmp byte [rsi],0x0
000025CF  7409              jz 0x25da
000025D1  4883C609          add rsi,byte +0x9
000025D5  803E00            cmp byte [rsi],0x0
000025D8  75F7              jnz 0x25d1
000025DA  4883C601          add rsi,byte +0x1
000025DE  803E00            cmp byte [rsi],0x0
000025E1  7408              jz 0x25eb
000025E3  802E01            sub byte [rsi],0x1
000025E6  803E00            cmp byte [rsi],0x0
000025E9  75F8              jnz 0x25e3
000025EB  800601            add byte [rsi],0x1
000025EE  4883EE01          sub rsi,byte +0x1
000025F2  803E00            cmp byte [rsi],0x0
000025F5  75A1              jnz 0x2598
000025F7  803E00            cmp byte [rsi],0x0
000025FA  0F8565FFFFFF      jnz near 0x2565
00002600  800601            add byte [rsi],0x1
00002603  4883C601          add rsi,byte +0x1
00002607  803E00            cmp byte [rsi],0x0
0000260A  741E              jz 0x262a
0000260C  802E01            sub byte [rsi],0x1
0000260F  4883EE01          sub rsi,byte +0x1
00002613  803E00            cmp byte [rsi],0x0
00002616  7409              jz 0x2621
00002618  4883C609          add rsi,byte +0x9
0000261C  803E00            cmp byte [rsi],0x0
0000261F  75F7              jnz 0x2618
00002621  4883EE08          sub rsi,byte +0x8
00002625  803E00            cmp byte [rsi],0x0
00002628  75E2              jnz 0x260c
0000262A  4883C608          add rsi,byte +0x8
0000262E  803E00            cmp byte [rsi],0x0
00002631  0F8549FEFFFF      jnz near 0x2480
00002637  4883EE09          sub rsi,byte +0x9
0000263B  803E00            cmp byte [rsi],0x0
0000263E  7409              jz 0x2649
00002640  4883EE09          sub rsi,byte +0x9
00002644  803E00            cmp byte [rsi],0x0
00002647  75F7              jnz 0x2640
00002649  4883C603          add rsi,byte +0x3
0000264D  803E00            cmp byte [rsi],0x0
00002650  7413              jz 0x2665
00002652  802E01            sub byte [rsi],0x1
00002655  4883EE03          sub rsi,byte +0x3
00002659  800601            add byte [rsi],0x1
0000265C  4883C603          add rsi,byte +0x3
00002660  803E00            cmp byte [rsi],0x0
00002663  75ED              jnz 0x2652
00002665  4883EE03          sub rsi,byte +0x3
00002669  803E00            cmp byte [rsi],0x0
0000266C  0F84B2010000      jz near 0x2824
00002672  802E01            sub byte [rsi],0x1
00002675  4883C603          add rsi,byte +0x3
00002679  800601            add byte [rsi],0x1
0000267C  4883C606          add rsi,byte +0x6
00002680  803E00            cmp byte [rsi],0x0
00002683  7448              jz 0x26cd
00002685  4883C601          add rsi,byte +0x1
00002689  800601            add byte [rsi],0x1
0000268C  4883C601          add rsi,byte +0x1
00002690  803E00            cmp byte [rsi],0x0
00002693  7413              jz 0x26a8
00002695  802E01            sub byte [rsi],0x1
00002698  4883EE01          sub rsi,byte +0x1
0000269C  802E01            sub byte [rsi],0x1
0000269F  4883C601          add rsi,byte +0x1
000026A3  803E00            cmp byte [rsi],0x0
000026A6  75ED              jnz 0x2695
000026A8  4883EE01          sub rsi,byte +0x1
000026AC  803E00            cmp byte [rsi],0x0
000026AF  7413              jz 0x26c4
000026B1  802E01            sub byte [rsi],0x1
000026B4  4883C601          add rsi,byte +0x1
000026B8  800601            add byte [rsi],0x1
000026BB  4883EE01          sub rsi,byte +0x1
000026BF  803E00            cmp byte [rsi],0x0
000026C2  75ED              jnz 0x26b1
000026C4  4883C608          add rsi,byte +0x8
000026C8  803E00            cmp byte [rsi],0x0
000026CB  75B8              jnz 0x2685
000026CD  4883EE08          sub rsi,byte +0x8
000026D1  800601            add byte [rsi],0x1
000026D4  4883EE01          sub rsi,byte +0x1
000026D8  803E00            cmp byte [rsi],0x0
000026DB  0F84EA000000      jz near 0x27cb
000026E1  4883C601          add rsi,byte +0x1
000026E5  803E00            cmp byte [rsi],0x0
000026E8  0F8475000000      jz near 0x2763
000026EE  802E01            sub byte [rsi],0x1
000026F1  4883C604          add rsi,byte +0x4
000026F5  800601            add byte [rsi],0x1
000026F8  4883EE02          sub rsi,byte +0x2
000026FC  803E00            cmp byte [rsi],0x0
000026FF  7436              jz 0x2737
00002701  802E01            sub byte [rsi],0x1
00002704  4883C602          add rsi,byte +0x2
00002708  802E01            sub byte [rsi],0x1
0000270B  4883EE0D          sub rsi,byte +0xd
0000270F  800601            add byte [rsi],0x1
00002712  4883C60A          add rsi,byte +0xa
00002716  803E00            cmp byte [rsi],0x0
00002719  7413              jz 0x272e
0000271B  802E01            sub byte [rsi],0x1
0000271E  4883C603          add rsi,byte +0x3
00002722  800601            add byte [rsi],0x1
00002725  4883EE03          sub rsi,byte +0x3
00002729  803E00            cmp byte [rsi],0x0
0000272C  75ED              jnz 0x271b
0000272E  4883C601          add rsi,byte +0x1
00002732  803E00            cmp byte [rsi],0x0
00002735  75CA              jnz 0x2701
00002737  4883EE01          sub rsi,byte +0x1
0000273B  803E00            cmp byte [rsi],0x0
0000273E  741A              jz 0x275a
00002740  802E01            sub byte [rsi],0x1
00002743  4883C603          add rsi,byte +0x3
00002747  802E01            sub byte [rsi],0x1
0000274A  4883EE0D          sub rsi,byte +0xd
0000274E  800601            add byte [rsi],0x1
00002751  4883C60A          add rsi,byte +0xa
00002755  803E00            cmp byte [rsi],0x0
00002758  75E6              jnz 0x2740
0000275A  4883EE01          sub rsi,byte +0x1
0000275E  803E00            cmp byte [rsi],0x0
00002761  758B              jnz 0x26ee
00002763  4883C602          add rsi,byte +0x2
00002767  803E00            cmp byte [rsi],0x0
0000276A  7436              jz 0x27a2
0000276C  802E01            sub byte [rsi],0x1
0000276F  4883C602          add rsi,byte +0x2
00002773  800601            add byte [rsi],0x1
00002776  4883EE03          sub rsi,byte +0x3
0000277A  803E00            cmp byte [rsi],0x0
0000277D  741A              jz 0x2799
0000277F  802E01            sub byte [rsi],0x1
00002782  4883C603          add rsi,byte +0x3
00002786  802E01            sub byte [rsi],0x1
00002789  4883EE0D          sub rsi,byte +0xd
0000278D  800601            add byte [rsi],0x1
00002790  4883C60A          add rsi,byte +0xa
00002794  803E00            cmp byte [rsi],0x0
00002797  75E6              jnz 0x277f
00002799  4883C601          add rsi,byte +0x1
0000279D  803E00            cmp byte [rsi],0x0
000027A0  75CA              jnz 0x276c
000027A2  4883EE01          sub rsi,byte +0x1
000027A6  803E00            cmp byte [rsi],0x0
000027A9  7413              jz 0x27be
000027AB  802E01            sub byte [rsi],0x1
000027AE  4883C603          add rsi,byte +0x3
000027B2  800601            add byte [rsi],0x1
000027B5  4883EE03          sub rsi,byte +0x3
000027B9  803E00            cmp byte [rsi],0x0
000027BC  75ED              jnz 0x27ab
000027BE  4883EE0B          sub rsi,byte +0xb
000027C2  803E00            cmp byte [rsi],0x0
000027C5  0F8516FFFFFF      jnz near 0x26e1
000027CB  4883C605          add rsi,byte +0x5
000027CF  803E00            cmp byte [rsi],0x0
000027D2  7408              jz 0x27dc
000027D4  802E01            sub byte [rsi],0x1
000027D7  803E00            cmp byte [rsi],0x0
000027DA  75F8              jnz 0x27d4
000027DC  4883C602          add rsi,byte +0x2
000027E0  803E00            cmp byte [rsi],0x0
000027E3  7413              jz 0x27f8
000027E5  802E01            sub byte [rsi],0x1
000027E8  4883EE07          sub rsi,byte +0x7
000027EC  800601            add byte [rsi],0x1
000027EF  4883C607          add rsi,byte +0x7
000027F3  803E00            cmp byte [rsi],0x0
000027F6  75ED              jnz 0x27e5
000027F8  4883EE07          sub rsi,byte +0x7
000027FC  803E00            cmp byte [rsi],0x0
000027FF  741A              jz 0x281b
00002801  802E01            sub byte [rsi],0x1
00002804  4883C607          add rsi,byte +0x7
00002808  800601            add byte [rsi],0x1
0000280B  4883EE02          sub rsi,byte +0x2
0000280F  800601            add byte [rsi],0x1
00002812  4883EE05          sub rsi,byte +0x5
00002816  803E00            cmp byte [rsi],0x0
00002819  75E6              jnz 0x2801
0000281B  803E00            cmp byte [rsi],0x0
0000281E  0F854EFEFFFF      jnz near 0x2672
00002824  4883C604          add rsi,byte +0x4
00002828  803E00            cmp byte [rsi],0x0
0000282B  7413              jz 0x2840
0000282D  802E01            sub byte [rsi],0x1
00002830  4883EE04          sub rsi,byte +0x4
00002834  800601            add byte [rsi],0x1
00002837  4883C604          add rsi,byte +0x4
0000283B  803E00            cmp byte [rsi],0x0
0000283E  75ED              jnz 0x282d
00002840  4883EE04          sub rsi,byte +0x4
00002844  803E00            cmp byte [rsi],0x0
00002847  0F8462010000      jz near 0x29af
0000284D  802E01            sub byte [rsi],0x1
00002850  4883C604          add rsi,byte +0x4
00002854  800601            add byte [rsi],0x1
00002857  4883C605          add rsi,byte +0x5
0000285B  803E00            cmp byte [rsi],0x0
0000285E  7448              jz 0x28a8
00002860  4883C601          add rsi,byte +0x1
00002864  800601            add byte [rsi],0x1
00002867  4883C602          add rsi,byte +0x2
0000286B  803E00            cmp byte [rsi],0x0
0000286E  7413              jz 0x2883
00002870  802E01            sub byte [rsi],0x1
00002873  4883EE02          sub rsi,byte +0x2
00002877  802E01            sub byte [rsi],0x1
0000287A  4883C602          add rsi,byte +0x2
0000287E  803E00            cmp byte [rsi],0x0
00002881  75ED              jnz 0x2870
00002883  4883EE02          sub rsi,byte +0x2
00002887  803E00            cmp byte [rsi],0x0
0000288A  7413              jz 0x289f
0000288C  802E01            sub byte [rsi],0x1
0000288F  4883C602          add rsi,byte +0x2
00002893  800601            add byte [rsi],0x1
00002896  4883EE02          sub rsi,byte +0x2
0000289A  803E00            cmp byte [rsi],0x0
0000289D  75ED              jnz 0x288c
0000289F  4883C608          add rsi,byte +0x8
000028A3  803E00            cmp byte [rsi],0x0
000028A6  75B8              jnz 0x2860
000028A8  4883EE08          sub rsi,byte +0x8
000028AC  800601            add byte [rsi],0x1
000028AF  4883EE01          sub rsi,byte +0x1
000028B3  803E00            cmp byte [rsi],0x0
000028B6  0F84EA000000      jz near 0x29a6
000028BC  4883C601          add rsi,byte +0x1
000028C0  803E00            cmp byte [rsi],0x0
000028C3  0F8475000000      jz near 0x293e
000028C9  802E01            sub byte [rsi],0x1
000028CC  4883C604          add rsi,byte +0x4
000028D0  800601            add byte [rsi],0x1
000028D3  4883EE03          sub rsi,byte +0x3
000028D7  803E00            cmp byte [rsi],0x0
000028DA  7436              jz 0x2912
000028DC  802E01            sub byte [rsi],0x1
000028DF  4883C603          add rsi,byte +0x3
000028E3  802E01            sub byte [rsi],0x1
000028E6  4883EE0D          sub rsi,byte +0xd
000028EA  800601            add byte [rsi],0x1
000028ED  4883C60B          add rsi,byte +0xb
000028F1  803E00            cmp byte [rsi],0x0
000028F4  7413              jz 0x2909
000028F6  802E01            sub byte [rsi],0x1
000028F9  4883C602          add rsi,byte +0x2
000028FD  800601            add byte [rsi],0x1
00002900  4883EE02          sub rsi,byte +0x2
00002904  803E00            cmp byte [rsi],0x0
00002907  75ED              jnz 0x28f6
00002909  4883EE01          sub rsi,byte +0x1
0000290D  803E00            cmp byte [rsi],0x0
00002910  75CA              jnz 0x28dc
00002912  4883C601          add rsi,byte +0x1
00002916  803E00            cmp byte [rsi],0x0
00002919  741A              jz 0x2935
0000291B  802E01            sub byte [rsi],0x1
0000291E  4883C602          add rsi,byte +0x2
00002922  802E01            sub byte [rsi],0x1
00002925  4883EE0D          sub rsi,byte +0xd
00002929  800601            add byte [rsi],0x1
0000292C  4883C60B          add rsi,byte +0xb
00002930  803E00            cmp byte [rsi],0x0
00002933  75E6              jnz 0x291b
00002935  4883EE02          sub rsi,byte +0x2
00002939  803E00            cmp byte [rsi],0x0
0000293C  758B              jnz 0x28c9
0000293E  4883C601          add rsi,byte +0x1
00002942  803E00            cmp byte [rsi],0x0
00002945  7436              jz 0x297d
00002947  802E01            sub byte [rsi],0x1
0000294A  4883C603          add rsi,byte +0x3
0000294E  800601            add byte [rsi],0x1
00002951  4883EE02          sub rsi,byte +0x2
00002955  803E00            cmp byte [rsi],0x0
00002958  741A              jz 0x2974
0000295A  802E01            sub byte [rsi],0x1
0000295D  4883C602          add rsi,byte +0x2
00002961  802E01            sub byte [rsi],0x1
00002964  4883EE0D          sub rsi,byte +0xd
00002968  800601            add byte [rsi],0x1
0000296B  4883C60B          add rsi,byte +0xb
0000296F  803E00            cmp byte [rsi],0x0
00002972  75E6              jnz 0x295a
00002974  4883EE01          sub rsi,byte +0x1
00002978  803E00            cmp byte [rsi],0x0
0000297B  75CA              jnz 0x2947
0000297D  4883C601          add rsi,byte +0x1
00002981  803E00            cmp byte [rsi],0x0
00002984  7413              jz 0x2999
00002986  802E01            sub byte [rsi],0x1
00002989  4883C602          add rsi,byte +0x2
0000298D  800601            add byte [rsi],0x1
00002990  4883EE02          sub rsi,byte +0x2
00002994  803E00            cmp byte [rsi],0x0
00002997  75ED              jnz 0x2986
00002999  4883EE0C          sub rsi,byte +0xc
0000299D  803E00            cmp byte [rsi],0x0
000029A0  0F8516FFFFFF      jnz near 0x28bc
000029A6  803E00            cmp byte [rsi],0x0
000029A9  0F859EFEFFFF      jnz near 0x284d
000029AF  4883C604          add rsi,byte +0x4
000029B3  803E00            cmp byte [rsi],0x0
000029B6  7408              jz 0x29c0
000029B8  802E01            sub byte [rsi],0x1
000029BB  803E00            cmp byte [rsi],0x0
000029BE  75F8              jnz 0x29b8
000029C0  4883EE04          sub rsi,byte +0x4
000029C4  803E00            cmp byte [rsi],0x0
000029C7  0F859CFAFFFF      jnz near 0x2469
000029CD  4883C604          add rsi,byte +0x4
000029D1  803E00            cmp byte [rsi],0x0
000029D4  7413              jz 0x29e9
000029D6  802E01            sub byte [rsi],0x1
000029D9  4883EE04          sub rsi,byte +0x4
000029DD  800601            add byte [rsi],0x1
000029E0  4883C604          add rsi,byte +0x4
000029E4  803E00            cmp byte [rsi],0x0
000029E7  75ED              jnz 0x29d6
000029E9  4883EE04          sub rsi,byte +0x4
000029ED  803E00            cmp byte [rsi],0x0
000029F0  0F846C010000      jz near 0x2b62
000029F6  802E01            sub byte [rsi],0x1
000029F9  4883C604          add rsi,byte +0x4
000029FD  800601            add byte [rsi],0x1
00002A00  4883C601          add rsi,byte +0x1
00002A04  803E00            cmp byte [rsi],0x0
00002A07  7408              jz 0x2a11
00002A09  802E01            sub byte [rsi],0x1
00002A0C  803E00            cmp byte [rsi],0x0
00002A0F  75F8              jnz 0x2a09
00002A11  4883C602          add rsi,byte +0x2
00002A15  803E00            cmp byte [rsi],0x0
00002A18  7413              jz 0x2a2d
00002A1A  802E01            sub byte [rsi],0x1
00002A1D  4883EE07          sub rsi,byte +0x7
00002A21  800601            add byte [rsi],0x1
00002A24  4883C607          add rsi,byte +0x7
00002A28  803E00            cmp byte [rsi],0x0
00002A2B  75ED              jnz 0x2a1a
00002A2D  4883EE07          sub rsi,byte +0x7
00002A31  803E00            cmp byte [rsi],0x0
00002A34  741A              jz 0x2a50
00002A36  802E01            sub byte [rsi],0x1
00002A39  4883C607          add rsi,byte +0x7
00002A3D  800601            add byte [rsi],0x1
00002A40  4883EE02          sub rsi,byte +0x2
00002A44  800601            add byte [rsi],0x1
00002A47  4883EE05          sub rsi,byte +0x5
00002A4B  803E00            cmp byte [rsi],0x0
00002A4E  75E6              jnz 0x2a36
00002A50  4883C609          add rsi,byte +0x9
00002A54  803E00            cmp byte [rsi],0x0
00002A57  7409              jz 0x2a62
00002A59  4883C609          add rsi,byte +0x9
00002A5D  803E00            cmp byte [rsi],0x0
00002A60  75F7              jnz 0x2a59
00002A62  4883EE09          sub rsi,byte +0x9
00002A66  803E00            cmp byte [rsi],0x0
00002A69  0F84EA000000      jz near 0x2b59
00002A6F  4883C601          add rsi,byte +0x1
00002A73  803E00            cmp byte [rsi],0x0
00002A76  0F8475000000      jz near 0x2af1
00002A7C  802E01            sub byte [rsi],0x1
00002A7F  4883C604          add rsi,byte +0x4
00002A83  800601            add byte [rsi],0x1
00002A86  4883EE03          sub rsi,byte +0x3
00002A8A  803E00            cmp byte [rsi],0x0
00002A8D  7436              jz 0x2ac5
00002A8F  802E01            sub byte [rsi],0x1
00002A92  4883C603          add rsi,byte +0x3
00002A96  802E01            sub byte [rsi],0x1
00002A99  4883EE0D          sub rsi,byte +0xd
00002A9D  800601            add byte [rsi],0x1
00002AA0  4883C60B          add rsi,byte +0xb
00002AA4  803E00            cmp byte [rsi],0x0
00002AA7  7413              jz 0x2abc
00002AA9  802E01            sub byte [rsi],0x1
00002AAC  4883C602          add rsi,byte +0x2
00002AB0  800601            add byte [rsi],0x1
00002AB3  4883EE02          sub rsi,byte +0x2
00002AB7  803E00            cmp byte [rsi],0x0
00002ABA  75ED              jnz 0x2aa9
00002ABC  4883EE01          sub rsi,byte +0x1
00002AC0  803E00            cmp byte [rsi],0x0
00002AC3  75CA              jnz 0x2a8f
00002AC5  4883C601          add rsi,byte +0x1
00002AC9  803E00            cmp byte [rsi],0x0
00002ACC  741A              jz 0x2ae8
00002ACE  802E01            sub byte [rsi],0x1
00002AD1  4883C602          add rsi,byte +0x2
00002AD5  802E01            sub byte [rsi],0x1
00002AD8  4883EE0D          sub rsi,byte +0xd
00002ADC  800601            add byte [rsi],0x1
00002ADF  4883C60B          add rsi,byte +0xb
00002AE3  803E00            cmp byte [rsi],0x0
00002AE6  75E6              jnz 0x2ace
00002AE8  4883EE02          sub rsi,byte +0x2
00002AEC  803E00            cmp byte [rsi],0x0
00002AEF  758B              jnz 0x2a7c
00002AF1  4883C601          add rsi,byte +0x1
00002AF5  803E00            cmp byte [rsi],0x0
00002AF8  7436              jz 0x2b30
00002AFA  802E01            sub byte [rsi],0x1
00002AFD  4883C603          add rsi,byte +0x3
00002B01  800601            add byte [rsi],0x1
00002B04  4883EE02          sub rsi,byte +0x2
00002B08  803E00            cmp byte [rsi],0x0
00002B0B  741A              jz 0x2b27
00002B0D  802E01            sub byte [rsi],0x1
00002B10  4883C602          add rsi,byte +0x2
00002B14  802E01            sub byte [rsi],0x1
00002B17  4883EE0D          sub rsi,byte +0xd
00002B1B  800601            add byte [rsi],0x1
00002B1E  4883C60B          add rsi,byte +0xb
00002B22  803E00            cmp byte [rsi],0x0
00002B25  75E6              jnz 0x2b0d
00002B27  4883EE01          sub rsi,byte +0x1
00002B2B  803E00            cmp byte [rsi],0x0
00002B2E  75CA              jnz 0x2afa
00002B30  4883C601          add rsi,byte +0x1
00002B34  803E00            cmp byte [rsi],0x0
00002B37  7413              jz 0x2b4c
00002B39  802E01            sub byte [rsi],0x1
00002B3C  4883C602          add rsi,byte +0x2
00002B40  800601            add byte [rsi],0x1
00002B43  4883EE02          sub rsi,byte +0x2
00002B47  803E00            cmp byte [rsi],0x0
00002B4A  75ED              jnz 0x2b39
00002B4C  4883EE0C          sub rsi,byte +0xc
00002B50  803E00            cmp byte [rsi],0x0
00002B53  0F8516FFFFFF      jnz near 0x2a6f
00002B59  803E00            cmp byte [rsi],0x0
00002B5C  0F8594FEFFFF      jnz near 0x29f6
00002B62  4883C609          add rsi,byte +0x9
00002B66  803E00            cmp byte [rsi],0x0
00002B69  742B              jz 0x2b96
00002B6B  4883C602          add rsi,byte +0x2
00002B6F  803E00            cmp byte [rsi],0x0
00002B72  7408              jz 0x2b7c
00002B74  802E01            sub byte [rsi],0x1
00002B77  803E00            cmp byte [rsi],0x0
00002B7A  75F8              jnz 0x2b74
00002B7C  4883C601          add rsi,byte +0x1
00002B80  803E00            cmp byte [rsi],0x0
00002B83  7408              jz 0x2b8d
00002B85  802E01            sub byte [rsi],0x1
00002B88  803E00            cmp byte [rsi],0x0
00002B8B  75F8              jnz 0x2b85
00002B8D  4883C606          add rsi,byte +0x6
00002B91  803E00            cmp byte [rsi],0x0
00002B94  75D5              jnz 0x2b6b
00002B96  4883EE09          sub rsi,byte +0x9
00002B9A  803E00            cmp byte [rsi],0x0
00002B9D  7409              jz 0x2ba8
00002B9F  4883EE09          sub rsi,byte +0x9
00002BA3  803E00            cmp byte [rsi],0x0
00002BA6  75F7              jnz 0x2b9f
00002BA8  4883C603          add rsi,byte +0x3
00002BAC  803E00            cmp byte [rsi],0x0
00002BAF  7408              jz 0x2bb9
00002BB1  802E01            sub byte [rsi],0x1
00002BB4  803E00            cmp byte [rsi],0x0
00002BB7  75F8              jnz 0x2bb1
00002BB9  4883C601          add rsi,byte +0x1
00002BBD  803E00            cmp byte [rsi],0x0
00002BC0  7408              jz 0x2bca
00002BC2  802E01            sub byte [rsi],0x1
00002BC5  803E00            cmp byte [rsi],0x0
00002BC8  75F8              jnz 0x2bc2
00002BCA  4883C605          add rsi,byte +0x5
00002BCE  803E00            cmp byte [rsi],0x0
00002BD1  7448              jz 0x2c1b
00002BD3  4883C605          add rsi,byte +0x5
00002BD7  803E00            cmp byte [rsi],0x0
00002BDA  7413              jz 0x2bef
00002BDC  802E01            sub byte [rsi],0x1
00002BDF  4883EE04          sub rsi,byte +0x4
00002BE3  800601            add byte [rsi],0x1
00002BE6  4883C604          add rsi,byte +0x4
00002BEA  803E00            cmp byte [rsi],0x0
00002BED  75ED              jnz 0x2bdc
00002BEF  4883EE04          sub rsi,byte +0x4
00002BF3  803E00            cmp byte [rsi],0x0
00002BF6  741A              jz 0x2c12
00002BF8  802E01            sub byte [rsi],0x1
00002BFB  4883C604          add rsi,byte +0x4
00002BFF  800601            add byte [rsi],0x1
00002C02  4883EE03          sub rsi,byte +0x3
00002C06  800601            add byte [rsi],0x1
00002C09  4883EE01          sub rsi,byte +0x1
00002C0D  803E00            cmp byte [rsi],0x0
00002C10  75E6              jnz 0x2bf8
00002C12  4883C608          add rsi,byte +0x8
00002C16  803E00            cmp byte [rsi],0x0
00002C19  75B8              jnz 0x2bd3
00002C1B  4883EE09          sub rsi,byte +0x9
00002C1F  803E00            cmp byte [rsi],0x0
00002C22  7409              jz 0x2c2d
00002C24  4883EE09          sub rsi,byte +0x9
00002C28  803E00            cmp byte [rsi],0x0
00002C2B  75F7              jnz 0x2c24
00002C2D  4883C609          add rsi,byte +0x9
00002C31  803E00            cmp byte [rsi],0x0
00002C34  7448              jz 0x2c7e
00002C36  4883C606          add rsi,byte +0x6
00002C3A  803E00            cmp byte [rsi],0x0
00002C3D  7413              jz 0x2c52
00002C3F  802E01            sub byte [rsi],0x1
00002C42  4883EE05          sub rsi,byte +0x5
00002C46  800601            add byte [rsi],0x1
00002C49  4883C605          add rsi,byte +0x5
00002C4D  803E00            cmp byte [rsi],0x0
00002C50  75ED              jnz 0x2c3f
00002C52  4883EE05          sub rsi,byte +0x5
00002C56  803E00            cmp byte [rsi],0x0
00002C59  741A              jz 0x2c75
00002C5B  802E01            sub byte [rsi],0x1
00002C5E  4883C605          add rsi,byte +0x5
00002C62  800601            add byte [rsi],0x1
00002C65  4883EE03          sub rsi,byte +0x3
00002C69  800601            add byte [rsi],0x1
00002C6C  4883EE02          sub rsi,byte +0x2
00002C70  803E00            cmp byte [rsi],0x0
00002C73  75E6              jnz 0x2c5b
00002C75  4883C608          add rsi,byte +0x8
00002C79  803E00            cmp byte [rsi],0x0
00002C7C  75B8              jnz 0x2c36
00002C7E  4883EE09          sub rsi,byte +0x9
00002C82  803E00            cmp byte [rsi],0x0
00002C85  7409              jz 0x2c90
00002C87  4883EE09          sub rsi,byte +0x9
00002C8B  803E00            cmp byte [rsi],0x0
00002C8E  75F7              jnz 0x2c87
00002C90  4883C609          add rsi,byte +0x9
00002C94  80060F            add byte [rsi],0xf
00002C97  803E00            cmp byte [rsi],0x0
00002C9A  0F84CC000000      jz near 0x2d6c
00002CA0  803E00            cmp byte [rsi],0x0
00002CA3  7409              jz 0x2cae
00002CA5  4883C609          add rsi,byte +0x9
00002CA9  803E00            cmp byte [rsi],0x0
00002CAC  75F7              jnz 0x2ca5
00002CAE  800601            add byte [rsi],0x1
00002CB1  4883C601          add rsi,byte +0x1
00002CB5  803E00            cmp byte [rsi],0x0
00002CB8  7408              jz 0x2cc2
00002CBA  802E01            sub byte [rsi],0x1
00002CBD  803E00            cmp byte [rsi],0x0
00002CC0  75F8              jnz 0x2cba
00002CC2  4883C601          add rsi,byte +0x1
00002CC6  803E00            cmp byte [rsi],0x0
00002CC9  7408              jz 0x2cd3
00002CCB  802E01            sub byte [rsi],0x1
00002CCE  803E00            cmp byte [rsi],0x0
00002CD1  75F8              jnz 0x2ccb
00002CD3  4883C601          add rsi,byte +0x1
00002CD7  803E00            cmp byte [rsi],0x0
00002CDA  7408              jz 0x2ce4
00002CDC  802E01            sub byte [rsi],0x1
00002CDF  803E00            cmp byte [rsi],0x0
00002CE2  75F8              jnz 0x2cdc
00002CE4  4883C601          add rsi,byte +0x1
00002CE8  803E00            cmp byte [rsi],0x0
00002CEB  7408              jz 0x2cf5
00002CED  802E01            sub byte [rsi],0x1
00002CF0  803E00            cmp byte [rsi],0x0
00002CF3  75F8              jnz 0x2ced
00002CF5  4883C601          add rsi,byte +0x1
00002CF9  803E00            cmp byte [rsi],0x0
00002CFC  7408              jz 0x2d06
00002CFE  802E01            sub byte [rsi],0x1
00002D01  803E00            cmp byte [rsi],0x0
00002D04  75F8              jnz 0x2cfe
00002D06  4883C601          add rsi,byte +0x1
00002D0A  803E00            cmp byte [rsi],0x0
00002D0D  7408              jz 0x2d17
00002D0F  802E01            sub byte [rsi],0x1
00002D12  803E00            cmp byte [rsi],0x0
00002D15  75F8              jnz 0x2d0f
00002D17  4883C601          add rsi,byte +0x1
00002D1B  803E00            cmp byte [rsi],0x0
00002D1E  7408              jz 0x2d28
00002D20  802E01            sub byte [rsi],0x1
00002D23  803E00            cmp byte [rsi],0x0
00002D26  75F8              jnz 0x2d20
00002D28  4883C601          add rsi,byte +0x1
00002D2C  803E00            cmp byte [rsi],0x0
00002D2F  7408              jz 0x2d39
00002D31  802E01            sub byte [rsi],0x1
00002D34  803E00            cmp byte [rsi],0x0
00002D37  75F8              jnz 0x2d31
00002D39  4883C601          add rsi,byte +0x1
00002D3D  803E00            cmp byte [rsi],0x0
00002D40  7408              jz 0x2d4a
00002D42  802E01            sub byte [rsi],0x1
00002D45  803E00            cmp byte [rsi],0x0
00002D48  75F8              jnz 0x2d42
00002D4A  4883EE09          sub rsi,byte +0x9
00002D4E  803E00            cmp byte [rsi],0x0
00002D51  7409              jz 0x2d5c
00002D53  4883EE09          sub rsi,byte +0x9
00002D57  803E00            cmp byte [rsi],0x0
00002D5A  75F7              jnz 0x2d53
00002D5C  4883C609          add rsi,byte +0x9
00002D60  802E01            sub byte [rsi],0x1
00002D63  803E00            cmp byte [rsi],0x0
00002D66  0F8534FFFFFF      jnz near 0x2ca0
00002D6C  800601            add byte [rsi],0x1
00002D6F  803E00            cmp byte [rsi],0x0
00002D72  7410              jz 0x2d84
00002D74  4883C601          add rsi,byte +0x1
00002D78  800601            add byte [rsi],0x1
00002D7B  4883C608          add rsi,byte +0x8
00002D7F  803E00            cmp byte [rsi],0x0
00002D82  75F0              jnz 0x2d74
00002D84  4883EE09          sub rsi,byte +0x9
00002D88  803E00            cmp byte [rsi],0x0
00002D8B  7409              jz 0x2d96
00002D8D  4883EE09          sub rsi,byte +0x9
00002D91  803E00            cmp byte [rsi],0x0
00002D94  75F7              jnz 0x2d8d
00002D96  4883C609          add rsi,byte +0x9
00002D9A  803E00            cmp byte [rsi],0x0
00002D9D  0F8418010000      jz near 0x2ebb
00002DA3  4883C601          add rsi,byte +0x1
00002DA7  802E01            sub byte [rsi],0x1
00002DAA  4883C604          add rsi,byte +0x4
00002DAE  803E00            cmp byte [rsi],0x0
00002DB1  7413              jz 0x2dc6
00002DB3  802E01            sub byte [rsi],0x1
00002DB6  4883EE04          sub rsi,byte +0x4
00002DBA  800601            add byte [rsi],0x1
00002DBD  4883C604          add rsi,byte +0x4
00002DC1  803E00            cmp byte [rsi],0x0
00002DC4  75ED              jnz 0x2db3
00002DC6  4883EE04          sub rsi,byte +0x4
00002DCA  803E00            cmp byte [rsi],0x0
00002DCD  0F8478000000      jz near 0x2e4b
00002DD3  802E01            sub byte [rsi],0x1
00002DD6  4883C604          add rsi,byte +0x4
00002DDA  800601            add byte [rsi],0x1
00002DDD  4883EE05          sub rsi,byte +0x5
00002DE1  803E00            cmp byte [rsi],0x0
00002DE4  744E              jz 0x2e34
00002DE6  802E01            sub byte [rsi],0x1
00002DE9  4883C602          add rsi,byte +0x2
00002DED  803E00            cmp byte [rsi],0x0
00002DF0  7413              jz 0x2e05
00002DF2  802E01            sub byte [rsi],0x1
00002DF5  4883EE02          sub rsi,byte +0x2
00002DF9  800601            add byte [rsi],0x1
00002DFC  4883C602          add rsi,byte +0x2
00002E00  803E00            cmp byte [rsi],0x0
00002E03  75ED              jnz 0x2df2
00002E05  4883EE02          sub rsi,byte +0x2
00002E09  803E00            cmp byte [rsi],0x0
00002E0C  741A              jz 0x2e28
00002E0E  802E01            sub byte [rsi],0x1
00002E11  4883C602          add rsi,byte +0x2
00002E15  800601            add byte [rsi],0x1
00002E18  4883C602          add rsi,byte +0x2
00002E1C  800601            add byte [rsi],0x1
00002E1F  4883EE04          sub rsi,byte +0x4
00002E23  803E00            cmp byte [rsi],0x0
00002E26  75E6              jnz 0x2e0e
00002E28  800601            add byte [rsi],0x1
00002E2B  4883C609          add rsi,byte +0x9
00002E2F  803E00            cmp byte [rsi],0x0
00002E32  75B2              jnz 0x2de6
00002E34  4883EE08          sub rsi,byte +0x8
00002E38  803E00            cmp byte [rsi],0x0
00002E3B  7409              jz 0x2e46
00002E3D  4883EE09          sub rsi,byte +0x9
00002E41  803E00            cmp byte [rsi],0x0
00002E44  75F7              jnz 0x2e3d
00002E46  803E00            cmp byte [rsi],0x0
00002E49  7588              jnz 0x2dd3
00002E4B  4883C609          add rsi,byte +0x9
00002E4F  803E00            cmp byte [rsi],0x0
00002E52  7409              jz 0x2e5d
00002E54  4883C609          add rsi,byte +0x9
00002E58  803E00            cmp byte [rsi],0x0
00002E5B  75F7              jnz 0x2e54
00002E5D  4883EE09          sub rsi,byte +0x9
00002E61  803E00            cmp byte [rsi],0x0
00002E64  7425              jz 0x2e8b
00002E66  4883C601          add rsi,byte +0x1
00002E6A  803E00            cmp byte [rsi],0x0
00002E6D  7413              jz 0x2e82
00002E6F  802E01            sub byte [rsi],0x1
00002E72  4883C609          add rsi,byte +0x9
00002E76  800601            add byte [rsi],0x1
00002E79  4883EE09          sub rsi,byte +0x9
00002E7D  803E00            cmp byte [rsi],0x0
00002E80  75ED              jnz 0x2e6f
00002E82  4883EE0A          sub rsi,byte +0xa
00002E86  803E00            cmp byte [rsi],0x0
00002E89  75DB              jnz 0x2e66
00002E8B  4883C601          add rsi,byte +0x1
00002E8F  803E00            cmp byte [rsi],0x0
00002E92  7413              jz 0x2ea7
00002E94  802E01            sub byte [rsi],0x1
00002E97  4883C609          add rsi,byte +0x9
00002E9B  800601            add byte [rsi],0x1
00002E9E  4883EE09          sub rsi,byte +0x9
00002EA2  803E00            cmp byte [rsi],0x0
00002EA5  75ED              jnz 0x2e94
00002EA7  4883EE01          sub rsi,byte +0x1
00002EAB  800601            add byte [rsi],0x1
00002EAE  4883C608          add rsi,byte +0x8
00002EB2  803E00            cmp byte [rsi],0x0
00002EB5  0F85E8FEFFFF      jnz near 0x2da3
00002EBB  4883EE09          sub rsi,byte +0x9
00002EBF  803E00            cmp byte [rsi],0x0
00002EC2  0F84A7000000      jz near 0x2f6f
00002EC8  4883C601          add rsi,byte +0x1
00002ECC  803E00            cmp byte [rsi],0x0
00002ECF  7408              jz 0x2ed9
00002ED1  802E01            sub byte [rsi],0x1
00002ED4  803E00            cmp byte [rsi],0x0
00002ED7  75F8              jnz 0x2ed1
00002ED9  4883EE01          sub rsi,byte +0x1
00002EDD  802E01            sub byte [rsi],0x1
00002EE0  4883C604          add rsi,byte +0x4
00002EE4  803E00            cmp byte [rsi],0x0
00002EE7  7456              jz 0x2f3f
00002EE9  802E01            sub byte [rsi],0x1
00002EEC  4883EE04          sub rsi,byte +0x4
00002EF0  800601            add byte [rsi],0x1
00002EF3  4883C601          add rsi,byte +0x1
00002EF7  803E00            cmp byte [rsi],0x0
00002EFA  741E              jz 0x2f1a
00002EFC  4883EE01          sub rsi,byte +0x1
00002F00  802E01            sub byte [rsi],0x1
00002F03  4883C601          add rsi,byte +0x1
00002F07  802E01            sub byte [rsi],0x1
00002F0A  4883EE06          sub rsi,byte +0x6
00002F0E  800601            add byte [rsi],0x1
00002F11  4883C606          add rsi,byte +0x6
00002F15  803E00            cmp byte [rsi],0x0
00002F18  75E2              jnz 0x2efc
00002F1A  4883EE01          sub rsi,byte +0x1
00002F1E  803E00            cmp byte [rsi],0x0
00002F21  7413              jz 0x2f36
00002F23  802E01            sub byte [rsi],0x1
00002F26  4883C601          add rsi,byte +0x1
00002F2A  800601            add byte [rsi],0x1
00002F2D  4883EE01          sub rsi,byte +0x1
00002F31  803E00            cmp byte [rsi],0x0
00002F34  75ED              jnz 0x2f23
00002F36  4883C604          add rsi,byte +0x4
00002F3A  803E00            cmp byte [rsi],0x0
00002F3D  75AA              jnz 0x2ee9
00002F3F  4883EE03          sub rsi,byte +0x3
00002F43  803E00            cmp byte [rsi],0x0
00002F46  7413              jz 0x2f5b
00002F48  802E01            sub byte [rsi],0x1
00002F4B  4883C603          add rsi,byte +0x3
00002F4F  800601            add byte [rsi],0x1
00002F52  4883EE03          sub rsi,byte +0x3
00002F56  803E00            cmp byte [rsi],0x0
00002F59  75ED              jnz 0x2f48
00002F5B  4883EE01          sub rsi,byte +0x1
00002F5F  800601            add byte [rsi],0x1
00002F62  4883EE09          sub rsi,byte +0x9
00002F66  803E00            cmp byte [rsi],0x0
00002F69  0F8559FFFFFF      jnz near 0x2ec8
00002F6F  4883C609          add rsi,byte +0x9
00002F73  803E00            cmp byte [rsi],0x0
00002F76  7410              jz 0x2f88
00002F78  4883C601          add rsi,byte +0x1
00002F7C  800601            add byte [rsi],0x1
00002F7F  4883C608          add rsi,byte +0x8
00002F83  803E00            cmp byte [rsi],0x0
00002F86  75F0              jnz 0x2f78
00002F88  4883EE09          sub rsi,byte +0x9
00002F8C  803E00            cmp byte [rsi],0x0
00002F8F  7409              jz 0x2f9a
00002F91  4883EE09          sub rsi,byte +0x9
00002F95  803E00            cmp byte [rsi],0x0
00002F98  75F7              jnz 0x2f91
00002F9A  4883C609          add rsi,byte +0x9
00002F9E  803E00            cmp byte [rsi],0x0
00002FA1  0F8418010000      jz near 0x30bf
00002FA7  4883C601          add rsi,byte +0x1
00002FAB  802E01            sub byte [rsi],0x1
00002FAE  4883C605          add rsi,byte +0x5
00002FB2  803E00            cmp byte [rsi],0x0
00002FB5  7413              jz 0x2fca
00002FB7  802E01            sub byte [rsi],0x1
00002FBA  4883EE05          sub rsi,byte +0x5
00002FBE  800601            add byte [rsi],0x1
00002FC1  4883C605          add rsi,byte +0x5
00002FC5  803E00            cmp byte [rsi],0x0
00002FC8  75ED              jnz 0x2fb7
00002FCA  4883EE05          sub rsi,byte +0x5
00002FCE  803E00            cmp byte [rsi],0x0
00002FD1  0F8478000000      jz near 0x304f
00002FD7  802E01            sub byte [rsi],0x1
00002FDA  4883C605          add rsi,byte +0x5
00002FDE  800601            add byte [rsi],0x1
00002FE1  4883EE06          sub rsi,byte +0x6
00002FE5  803E00            cmp byte [rsi],0x0
00002FE8  744E              jz 0x3038
00002FEA  802E01            sub byte [rsi],0x1
00002FED  4883C603          add rsi,byte +0x3
00002FF1  803E00            cmp byte [rsi],0x0
00002FF4  7413              jz 0x3009
00002FF6  802E01            sub byte [rsi],0x1
00002FF9  4883EE03          sub rsi,byte +0x3
00002FFD  800601            add byte [rsi],0x1
00003000  4883C603          add rsi,byte +0x3
00003004  803E00            cmp byte [rsi],0x0
00003007  75ED              jnz 0x2ff6
00003009  4883EE03          sub rsi,byte +0x3
0000300D  803E00            cmp byte [rsi],0x0
00003010  741A              jz 0x302c
00003012  802E01            sub byte [rsi],0x1
00003015  4883C603          add rsi,byte +0x3
00003019  800601            add byte [rsi],0x1
0000301C  4883C601          add rsi,byte +0x1
00003020  800601            add byte [rsi],0x1
00003023  4883EE04          sub rsi,byte +0x4
00003027  803E00            cmp byte [rsi],0x0
0000302A  75E6              jnz 0x3012
0000302C  800601            add byte [rsi],0x1
0000302F  4883C609          add rsi,byte +0x9
00003033  803E00            cmp byte [rsi],0x0
00003036  75B2              jnz 0x2fea
00003038  4883EE08          sub rsi,byte +0x8
0000303C  803E00            cmp byte [rsi],0x0
0000303F  7409              jz 0x304a
00003041  4883EE09          sub rsi,byte +0x9
00003045  803E00            cmp byte [rsi],0x0
00003048  75F7              jnz 0x3041
0000304A  803E00            cmp byte [rsi],0x0
0000304D  7588              jnz 0x2fd7
0000304F  4883C609          add rsi,byte +0x9
00003053  803E00            cmp byte [rsi],0x0
00003056  7409              jz 0x3061
00003058  4883C609          add rsi,byte +0x9
0000305C  803E00            cmp byte [rsi],0x0
0000305F  75F7              jnz 0x3058
00003061  4883EE09          sub rsi,byte +0x9
00003065  803E00            cmp byte [rsi],0x0
00003068  7425              jz 0x308f
0000306A  4883C602          add rsi,byte +0x2
0000306E  803E00            cmp byte [rsi],0x0
00003071  7413              jz 0x3086
00003073  802E01            sub byte [rsi],0x1
00003076  4883C609          add rsi,byte +0x9
0000307A  800601            add byte [rsi],0x1
0000307D  4883EE09          sub rsi,byte +0x9
00003081  803E00            cmp byte [rsi],0x0
00003084  75ED              jnz 0x3073
00003086  4883EE0B          sub rsi,byte +0xb
0000308A  803E00            cmp byte [rsi],0x0
0000308D  75DB              jnz 0x306a
0000308F  4883C602          add rsi,byte +0x2
00003093  803E00            cmp byte [rsi],0x0
00003096  7413              jz 0x30ab
00003098  802E01            sub byte [rsi],0x1
0000309B  4883C609          add rsi,byte +0x9
0000309F  800601            add byte [rsi],0x1
000030A2  4883EE09          sub rsi,byte +0x9
000030A6  803E00            cmp byte [rsi],0x0
000030A9  75ED              jnz 0x3098
000030AB  4883EE02          sub rsi,byte +0x2
000030AF  800601            add byte [rsi],0x1
000030B2  4883C608          add rsi,byte +0x8
000030B6  803E00            cmp byte [rsi],0x0
000030B9  0F85E8FEFFFF      jnz near 0x2fa7
000030BF  4883EE09          sub rsi,byte +0x9
000030C3  803E00            cmp byte [rsi],0x0
000030C6  0F84A7000000      jz near 0x3173
000030CC  4883C601          add rsi,byte +0x1
000030D0  803E00            cmp byte [rsi],0x0
000030D3  7408              jz 0x30dd
000030D5  802E01            sub byte [rsi],0x1
000030D8  803E00            cmp byte [rsi],0x0
000030DB  75F8              jnz 0x30d5
000030DD  4883EE01          sub rsi,byte +0x1
000030E1  802E01            sub byte [rsi],0x1
000030E4  4883C604          add rsi,byte +0x4
000030E8  803E00            cmp byte [rsi],0x0
000030EB  7456              jz 0x3143
000030ED  802E01            sub byte [rsi],0x1
000030F0  4883EE04          sub rsi,byte +0x4
000030F4  800601            add byte [rsi],0x1
000030F7  4883C601          add rsi,byte +0x1
000030FB  803E00            cmp byte [rsi],0x0
000030FE  741E              jz 0x311e
00003100  4883EE01          sub rsi,byte +0x1
00003104  802E01            sub byte [rsi],0x1
00003107  4883C601          add rsi,byte +0x1
0000310B  802E01            sub byte [rsi],0x1
0000310E  4883EE06          sub rsi,byte +0x6
00003112  800601            add byte [rsi],0x1
00003115  4883C606          add rsi,byte +0x6
00003119  803E00            cmp byte [rsi],0x0
0000311C  75E2              jnz 0x3100
0000311E  4883EE01          sub rsi,byte +0x1
00003122  803E00            cmp byte [rsi],0x0
00003125  7413              jz 0x313a
00003127  802E01            sub byte [rsi],0x1
0000312A  4883C601          add rsi,byte +0x1
0000312E  800601            add byte [rsi],0x1
00003131  4883EE01          sub rsi,byte +0x1
00003135  803E00            cmp byte [rsi],0x0
00003138  75ED              jnz 0x3127
0000313A  4883C604          add rsi,byte +0x4
0000313E  803E00            cmp byte [rsi],0x0
00003141  75AA              jnz 0x30ed
00003143  4883EE03          sub rsi,byte +0x3
00003147  803E00            cmp byte [rsi],0x0
0000314A  7413              jz 0x315f
0000314C  802E01            sub byte [rsi],0x1
0000314F  4883C603          add rsi,byte +0x3
00003153  800601            add byte [rsi],0x1
00003156  4883EE03          sub rsi,byte +0x3
0000315A  803E00            cmp byte [rsi],0x0
0000315D  75ED              jnz 0x314c
0000315F  4883EE01          sub rsi,byte +0x1
00003163  800601            add byte [rsi],0x1
00003166  4883EE09          sub rsi,byte +0x9
0000316A  803E00            cmp byte [rsi],0x0
0000316D  0F8559FFFFFF      jnz near 0x30cc
00003173  4883C609          add rsi,byte +0x9
00003177  803E00            cmp byte [rsi],0x0
0000317A  7425              jz 0x31a1
0000317C  4883C604          add rsi,byte +0x4
00003180  803E00            cmp byte [rsi],0x0
00003183  7413              jz 0x3198
00003185  802E01            sub byte [rsi],0x1
00003188  4883EE24          sub rsi,byte +0x24
0000318C  800601            add byte [rsi],0x1
0000318F  4883C624          add rsi,byte +0x24
00003193  803E00            cmp byte [rsi],0x0
00003196  75ED              jnz 0x3185
00003198  4883C605          add rsi,byte +0x5
0000319C  803E00            cmp byte [rsi],0x0
0000319F  75DB              jnz 0x317c
000031A1  4883EE09          sub rsi,byte +0x9
000031A5  803E00            cmp byte [rsi],0x0
000031A8  7409              jz 0x31b3
000031AA  4883EE09          sub rsi,byte +0x9
000031AE  803E00            cmp byte [rsi],0x0
000031B1  75F7              jnz 0x31aa
000031B3  4883C609          add rsi,byte +0x9
000031B7  80060F            add byte [rsi],0xf
000031BA  803E00            cmp byte [rsi],0x0
000031BD  7433              jz 0x31f2
000031BF  803E00            cmp byte [rsi],0x0
000031C2  7409              jz 0x31cd
000031C4  4883C609          add rsi,byte +0x9
000031C8  803E00            cmp byte [rsi],0x0
000031CB  75F7              jnz 0x31c4
000031CD  4883EE09          sub rsi,byte +0x9
000031D1  802E01            sub byte [rsi],0x1
000031D4  4883EE09          sub rsi,byte +0x9
000031D8  803E00            cmp byte [rsi],0x0
000031DB  7409              jz 0x31e6
000031DD  4883EE09          sub rsi,byte +0x9
000031E1  803E00            cmp byte [rsi],0x0
000031E4  75F7              jnz 0x31dd
000031E6  4883C609          add rsi,byte +0x9
000031EA  802E01            sub byte [rsi],0x1
000031ED  803E00            cmp byte [rsi],0x0
000031F0  75CD              jnz 0x31bf
000031F2  800601            add byte [rsi],0x1
000031F5  4883C615          add rsi,byte +0x15
000031F9  800601            add byte [rsi],0x1
000031FC  4883EE03          sub rsi,byte +0x3
00003200  803E00            cmp byte [rsi],0x0
00003203  7409              jz 0x320e
00003205  4883EE09          sub rsi,byte +0x9
00003209  803E00            cmp byte [rsi],0x0
0000320C  75F7              jnz 0x3205
0000320E  4883C609          add rsi,byte +0x9
00003212  803E00            cmp byte [rsi],0x0
00003215  0F84B7010000      jz near 0x33d2
0000321B  4883C603          add rsi,byte +0x3
0000321F  803E00            cmp byte [rsi],0x0
00003222  7413              jz 0x3237
00003224  802E01            sub byte [rsi],0x1
00003227  4883EE03          sub rsi,byte +0x3
0000322B  802E01            sub byte [rsi],0x1
0000322E  4883C603          add rsi,byte +0x3
00003232  803E00            cmp byte [rsi],0x0
00003235  75ED              jnz 0x3224
00003237  800601            add byte [rsi],0x1
0000323A  4883EE03          sub rsi,byte +0x3
0000323E  803E00            cmp byte [rsi],0x0
00003241  0F848A000000      jz near 0x32d1
00003247  802E01            sub byte [rsi],0x1
0000324A  4883C603          add rsi,byte +0x3
0000324E  802E01            sub byte [rsi],0x1
00003251  4883C601          add rsi,byte +0x1
00003255  803E00            cmp byte [rsi],0x0
00003258  7413              jz 0x326d
0000325A  802E01            sub byte [rsi],0x1
0000325D  4883EE04          sub rsi,byte +0x4
00003261  800601            add byte [rsi],0x1
00003264  4883C604          add rsi,byte +0x4
00003268  803E00            cmp byte [rsi],0x0
0000326B  75ED              jnz 0x325a
0000326D  4883EE04          sub rsi,byte +0x4
00003271  803E00            cmp byte [rsi],0x0
00003274  7452              jz 0x32c8
00003276  802E01            sub byte [rsi],0x1
00003279  4883C604          add rsi,byte +0x4
0000327D  800601            add byte [rsi],0x1
00003280  4883EE0D          sub rsi,byte +0xd
00003284  803E00            cmp byte [rsi],0x0
00003287  7409              jz 0x3292
00003289  4883EE09          sub rsi,byte +0x9
0000328D  803E00            cmp byte [rsi],0x0
00003290  75F7              jnz 0x3289
00003292  4883C604          add rsi,byte +0x4
00003296  803E00            cmp byte [rsi],0x0
00003299  7408              jz 0x32a3
0000329B  802E01            sub byte [rsi],0x1
0000329E  803E00            cmp byte [rsi],0x0
000032A1  75F8              jnz 0x329b
000032A3  800601            add byte [rsi],0x1
000032A6  4883C605          add rsi,byte +0x5
000032AA  803E00            cmp byte [rsi],0x0
000032AD  7409              jz 0x32b8
000032AF  4883C609          add rsi,byte +0x9
000032B3  803E00            cmp byte [rsi],0x0
000032B6  75F7              jnz 0x32af
000032B8  4883C601          add rsi,byte +0x1
000032BC  800601            add byte [rsi],0x1
000032BF  4883EE01          sub rsi,byte +0x1
000032C3  803E00            cmp byte [rsi],0x0
000032C6  75AE              jnz 0x3276
000032C8  803E00            cmp byte [rsi],0x0
000032CB  0F8576FFFFFF      jnz near 0x3247
000032D1  800601            add byte [rsi],0x1
000032D4  4883C604          add rsi,byte +0x4
000032D8  803E00            cmp byte [rsi],0x0
000032DB  7413              jz 0x32f0
000032DD  802E01            sub byte [rsi],0x1
000032E0  4883EE04          sub rsi,byte +0x4
000032E4  802E01            sub byte [rsi],0x1
000032E7  4883C604          add rsi,byte +0x4
000032EB  803E00            cmp byte [rsi],0x0
000032EE  75ED              jnz 0x32dd
000032F0  800601            add byte [rsi],0x1
000032F3  4883EE04          sub rsi,byte +0x4
000032F7  803E00            cmp byte [rsi],0x0
000032FA  0F849B000000      jz near 0x339b
00003300  802E01            sub byte [rsi],0x1
00003303  4883C604          add rsi,byte +0x4
00003307  802E01            sub byte [rsi],0x1
0000330A  4883EE01          sub rsi,byte +0x1
0000330E  803E00            cmp byte [rsi],0x0
00003311  7413              jz 0x3326
00003313  802E01            sub byte [rsi],0x1
00003316  4883EE03          sub rsi,byte +0x3
0000331A  800601            add byte [rsi],0x1
0000331D  4883C603          add rsi,byte +0x3
00003321  803E00            cmp byte [rsi],0x0
00003324  75ED              jnz 0x3313
00003326  4883EE03          sub rsi,byte +0x3
0000332A  803E00            cmp byte [rsi],0x0
0000332D  0F845F000000      jz near 0x3392
00003333  802E01            sub byte [rsi],0x1
00003336  4883C603          add rsi,byte +0x3
0000333A  800601            add byte [rsi],0x1
0000333D  4883EE0C          sub rsi,byte +0xc
00003341  803E00            cmp byte [rsi],0x0
00003344  7409              jz 0x334f
00003346  4883EE09          sub rsi,byte +0x9
0000334A  803E00            cmp byte [rsi],0x0
0000334D  75F7              jnz 0x3346
0000334F  4883C603          add rsi,byte +0x3
00003353  803E00            cmp byte [rsi],0x0
00003356  7408              jz 0x3360
00003358  802E01            sub byte [rsi],0x1
0000335B  803E00            cmp byte [rsi],0x0
0000335E  75F8              jnz 0x3358
00003360  800601            add byte [rsi],0x1
00003363  4883C606          add rsi,byte +0x6
00003367  803E00            cmp byte [rsi],0x0
0000336A  7409              jz 0x3375
0000336C  4883C609          add rsi,byte +0x9
00003370  803E00            cmp byte [rsi],0x0
00003373  75F7              jnz 0x336c
00003375  4883C601          add rsi,byte +0x1
00003379  803E00            cmp byte [rsi],0x0
0000337C  7408              jz 0x3386
0000337E  802E01            sub byte [rsi],0x1
00003381  803E00            cmp byte [rsi],0x0
00003384  75F8              jnz 0x337e
00003386  800601            add byte [rsi],0x1
00003389  4883EE01          sub rsi,byte +0x1
0000338D  803E00            cmp byte [rsi],0x0
00003390  75A1              jnz 0x3333
00003392  803E00            cmp byte [rsi],0x0
00003395  0F8565FFFFFF      jnz near 0x3300
0000339B  800601            add byte [rsi],0x1
0000339E  4883C601          add rsi,byte +0x1
000033A2  803E00            cmp byte [rsi],0x0
000033A5  741E              jz 0x33c5
000033A7  802E01            sub byte [rsi],0x1
000033AA  4883EE01          sub rsi,byte +0x1
000033AE  803E00            cmp byte [rsi],0x0
000033B1  7409              jz 0x33bc
000033B3  4883C609          add rsi,byte +0x9
000033B7  803E00            cmp byte [rsi],0x0
000033BA  75F7              jnz 0x33b3
000033BC  4883EE08          sub rsi,byte +0x8
000033C0  803E00            cmp byte [rsi],0x0
000033C3  75E2              jnz 0x33a7
000033C5  4883C608          add rsi,byte +0x8
000033C9  803E00            cmp byte [rsi],0x0
000033CC  0F8549FEFFFF      jnz near 0x321b
000033D2  4883EE09          sub rsi,byte +0x9
000033D6  803E00            cmp byte [rsi],0x0
000033D9  7409              jz 0x33e4
000033DB  4883EE09          sub rsi,byte +0x9
000033DF  803E00            cmp byte [rsi],0x0
000033E2  75F7              jnz 0x33db
000033E4  4883C602          add rsi,byte +0x2
000033E8  802E01            sub byte [rsi],0x1
000033EB  4883C602          add rsi,byte +0x2
000033EF  803E00            cmp byte [rsi],0x0
000033F2  7413              jz 0x3407
000033F4  802E01            sub byte [rsi],0x1
000033F7  4883EE04          sub rsi,byte +0x4
000033FB  800601            add byte [rsi],0x1
000033FE  4883C604          add rsi,byte +0x4
00003402  803E00            cmp byte [rsi],0x0
00003405  75ED              jnz 0x33f4
00003407  4883EE04          sub rsi,byte +0x4
0000340B  803E00            cmp byte [rsi],0x0
0000340E  7424              jz 0x3434
00003410  802E01            sub byte [rsi],0x1
00003413  4883C604          add rsi,byte +0x4
00003417  800601            add byte [rsi],0x1
0000341A  4883EE02          sub rsi,byte +0x2
0000341E  803E00            cmp byte [rsi],0x0
00003421  7408              jz 0x342b
00003423  802E01            sub byte [rsi],0x1
00003426  803E00            cmp byte [rsi],0x0
00003429  75F8              jnz 0x3423
0000342B  4883EE02          sub rsi,byte +0x2
0000342F  803E00            cmp byte [rsi],0x0
00003432  75DC              jnz 0x3410
00003434  4883C602          add rsi,byte +0x2
00003438  803E00            cmp byte [rsi],0x0
0000343B  0F8596D5FFFF      jnz near 0x9d7
00003441  4883EE02          sub rsi,byte +0x2
00003445  800601            add byte [rsi],0x1
00003448  4883C604          add rsi,byte +0x4
0000344C  803E00            cmp byte [rsi],0x0
0000344F  7413              jz 0x3464
00003451  802E01            sub byte [rsi],0x1
00003454  4883EE04          sub rsi,byte +0x4
00003458  802E01            sub byte [rsi],0x1
0000345B  4883C604          add rsi,byte +0x4
0000345F  803E00            cmp byte [rsi],0x0
00003462  75ED              jnz 0x3451
00003464  800601            add byte [rsi],0x1
00003467  4883EE04          sub rsi,byte +0x4
0000346B  803E00            cmp byte [rsi],0x0
0000346E  7426              jz 0x3496
00003470  802E01            sub byte [rsi],0x1
00003473  4883C604          add rsi,byte +0x4
00003477  802E01            sub byte [rsi],0x1
0000347A  4883EE06          sub rsi,byte +0x6
0000347E  57                push rdi
0000347F  4C8B17            mov r10,[rdi]
00003482  488B3E            mov rdi,[rsi]
00003485  41FFD2            call r10
00003488  5F                pop rdi
00003489  488B7708          mov rsi,[rdi+0x8]
0000348D  4883C602          add rsi,byte +0x2
00003491  803E00            cmp byte [rsi],0x0
00003494  75DA              jnz 0x3470
00003496  4883C604          add rsi,byte +0x4
0000349A  803E00            cmp byte [rsi],0x0
0000349D  741F              jz 0x34be
0000349F  802E01            sub byte [rsi],0x1
000034A2  4883EE07          sub rsi,byte +0x7
000034A6  57                push rdi
000034A7  4C8B17            mov r10,[rdi]
000034AA  488B3E            mov rdi,[rsi]
000034AD  41FFD2            call r10
000034B0  5F                pop rdi
000034B1  488B7708          mov rsi,[rdi+0x8]
000034B5  4883C607          add rsi,byte +0x7
000034B9  803E00            cmp byte [rsi],0x0
000034BC  75E1              jnz 0x349f
000034BE  4883EE03          sub rsi,byte +0x3
000034C2  803E00            cmp byte [rsi],0x0
000034C5  7408              jz 0x34cf
000034C7  802E01            sub byte [rsi],0x1
000034CA  803E00            cmp byte [rsi],0x0
000034CD  75F8              jnz 0x34c7
000034CF  4883C601          add rsi,byte +0x1
000034D3  803E00            cmp byte [rsi],0x0
000034D6  7408              jz 0x34e0
000034D8  802E01            sub byte [rsi],0x1
000034DB  803E00            cmp byte [rsi],0x0
000034DE  75F8              jnz 0x34d8
000034E0  4883C601          add rsi,byte +0x1
000034E4  803E00            cmp byte [rsi],0x0
000034E7  7408              jz 0x34f1
000034E9  802E01            sub byte [rsi],0x1
000034EC  803E00            cmp byte [rsi],0x0
000034EF  75F8              jnz 0x34e9
000034F1  4883C601          add rsi,byte +0x1
000034F5  803E00            cmp byte [rsi],0x0
000034F8  7408              jz 0x3502
000034FA  802E01            sub byte [rsi],0x1
000034FD  803E00            cmp byte [rsi],0x0
00003500  75F8              jnz 0x34fa
00003502  4883C601          add rsi,byte +0x1
00003506  803E00            cmp byte [rsi],0x0
00003509  7408              jz 0x3513
0000350B  802E01            sub byte [rsi],0x1
0000350E  803E00            cmp byte [rsi],0x0
00003511  75F8              jnz 0x350b
00003513  4883C601          add rsi,byte +0x1
00003517  803E00            cmp byte [rsi],0x0
0000351A  7408              jz 0x3524
0000351C  802E01            sub byte [rsi],0x1
0000351F  803E00            cmp byte [rsi],0x0
00003522  75F8              jnz 0x351c
00003524  4883C603          add rsi,byte +0x3
00003528  803E00            cmp byte [rsi],0x0
0000352B  0F846F000000      jz near 0x35a0
00003531  4883C601          add rsi,byte +0x1
00003535  803E00            cmp byte [rsi],0x0
00003538  7408              jz 0x3542
0000353A  802E01            sub byte [rsi],0x1
0000353D  803E00            cmp byte [rsi],0x0
00003540  75F8              jnz 0x353a
00003542  4883C601          add rsi,byte +0x1
00003546  803E00            cmp byte [rsi],0x0
00003549  7408              jz 0x3553
0000354B  802E01            sub byte [rsi],0x1
0000354E  803E00            cmp byte [rsi],0x0
00003551  75F8              jnz 0x354b
00003553  4883C601          add rsi,byte +0x1
00003557  803E00            cmp byte [rsi],0x0
0000355A  7408              jz 0x3564
0000355C  802E01            sub byte [rsi],0x1
0000355F  803E00            cmp byte [rsi],0x0
00003562  75F8              jnz 0x355c
00003564  4883C601          add rsi,byte +0x1
00003568  803E00            cmp byte [rsi],0x0
0000356B  7408              jz 0x3575
0000356D  802E01            sub byte [rsi],0x1
00003570  803E00            cmp byte [rsi],0x0
00003573  75F8              jnz 0x356d
00003575  4883C601          add rsi,byte +0x1
00003579  803E00            cmp byte [rsi],0x0
0000357C  7408              jz 0x3586
0000357E  802E01            sub byte [rsi],0x1
00003581  803E00            cmp byte [rsi],0x0
00003584  75F8              jnz 0x357e
00003586  4883C601          add rsi,byte +0x1
0000358A  803E00            cmp byte [rsi],0x0
0000358D  7408              jz 0x3597
0000358F  802E01            sub byte [rsi],0x1
00003592  803E00            cmp byte [rsi],0x0
00003595  75F8              jnz 0x358f
00003597  4883C603          add rsi,byte +0x3
0000359B  803E00            cmp byte [rsi],0x0
0000359E  7591              jnz 0x3531
000035A0  4883EE09          sub rsi,byte +0x9
000035A4  803E00            cmp byte [rsi],0x0
000035A7  7409              jz 0x35b2
000035A9  4883EE09          sub rsi,byte +0x9
000035AD  803E00            cmp byte [rsi],0x0
000035B0  75F7              jnz 0x35a9
000035B2  4883C609          add rsi,byte +0x9
000035B6  803E00            cmp byte [rsi],0x0
000035B9  741A              jz 0x35d5
000035BB  4883C605          add rsi,byte +0x5
000035BF  803E00            cmp byte [rsi],0x0
000035C2  7408              jz 0x35cc
000035C4  802E01            sub byte [rsi],0x1
000035C7  803E00            cmp byte [rsi],0x0
000035CA  75F8              jnz 0x35c4
000035CC  4883C604          add rsi,byte +0x4
000035D0  803E00            cmp byte [rsi],0x0
000035D3  75E6              jnz 0x35bb
000035D5  4883EE09          sub rsi,byte +0x9
000035D9  803E00            cmp byte [rsi],0x0
000035DC  7409              jz 0x35e7
000035DE  4883EE09          sub rsi,byte +0x9
000035E2  803E00            cmp byte [rsi],0x0
000035E5  75F7              jnz 0x35de
000035E7  4883C601          add rsi,byte +0x1
000035EB  80060B            add byte [rsi],0xb
000035EE  803E00            cmp byte [rsi],0x0
000035F1  7424              jz 0x3617
000035F3  802E01            sub byte [rsi],0x1
000035F6  803E00            cmp byte [rsi],0x0
000035F9  7413              jz 0x360e
000035FB  802E01            sub byte [rsi],0x1
000035FE  4883C609          add rsi,byte +0x9
00003602  800601            add byte [rsi],0x1
00003605  4883EE09          sub rsi,byte +0x9
00003609  803E00            cmp byte [rsi],0x0
0000360C  75ED              jnz 0x35fb
0000360E  4883C609          add rsi,byte +0x9
00003612  803E00            cmp byte [rsi],0x0
00003615  75DC              jnz 0x35f3
00003617  4883C604          add rsi,byte +0x4
0000361B  800601            add byte [rsi],0x1
0000361E  4883C609          add rsi,byte +0x9
00003622  800601            add byte [rsi],0x1
00003625  4883EE0E          sub rsi,byte +0xe
00003629  803E00            cmp byte [rsi],0x0
0000362C  7409              jz 0x3637
0000362E  4883EE09          sub rsi,byte +0x9
00003632  803E00            cmp byte [rsi],0x0
00003635  75F7              jnz 0x362e
00003637  4883C607          add rsi,byte +0x7
0000363B  803E00            cmp byte [rsi],0x0
0000363E  7413              jz 0x3653
00003640  802E01            sub byte [rsi],0x1
00003643  4883EE07          sub rsi,byte +0x7
00003647  800601            add byte [rsi],0x1
0000364A  4883C607          add rsi,byte +0x7
0000364E  803E00            cmp byte [rsi],0x0
00003651  75ED              jnz 0x3640
00003653  4883EE07          sub rsi,byte +0x7
00003657  803E00            cmp byte [rsi],0x0
0000365A  0F84A6000000      jz near 0x3706
00003660  802E01            sub byte [rsi],0x1
00003663  4883C607          add rsi,byte +0x7
00003667  800601            add byte [rsi],0x1
0000366A  803E00            cmp byte [rsi],0x0
0000366D  7408              jz 0x3677
0000366F  802E01            sub byte [rsi],0x1
00003672  803E00            cmp byte [rsi],0x0
00003675  75F8              jnz 0x366f
00003677  4883C602          add rsi,byte +0x2
0000367B  803E00            cmp byte [rsi],0x0
0000367E  7409              jz 0x3689
00003680  4883C609          add rsi,byte +0x9
00003684  803E00            cmp byte [rsi],0x0
00003687  75F7              jnz 0x3680
00003689  4883EE09          sub rsi,byte +0x9
0000368D  803E00            cmp byte [rsi],0x0
00003690  0F8467000000      jz near 0x36fd
00003696  4883C607          add rsi,byte +0x7
0000369A  803E00            cmp byte [rsi],0x0
0000369D  7413              jz 0x36b2
0000369F  802E01            sub byte [rsi],0x1
000036A2  4883EE06          sub rsi,byte +0x6
000036A6  800601            add byte [rsi],0x1
000036A9  4883C606          add rsi,byte +0x6
000036AD  803E00            cmp byte [rsi],0x0
000036B0  75ED              jnz 0x369f
000036B2  4883EE06          sub rsi,byte +0x6
000036B6  803E00            cmp byte [rsi],0x0
000036B9  7439              jz 0x36f4
000036BB  802E01            sub byte [rsi],0x1
000036BE  4883C606          add rsi,byte +0x6
000036C2  800601            add byte [rsi],0x1
000036C5  4883EE07          sub rsi,byte +0x7
000036C9  803E00            cmp byte [rsi],0x0
000036CC  7409              jz 0x36d7
000036CE  4883EE09          sub rsi,byte +0x9
000036D2  803E00            cmp byte [rsi],0x0
000036D5  75F7              jnz 0x36ce
000036D7  4883C607          add rsi,byte +0x7
000036DB  803E00            cmp byte [rsi],0x0
000036DE  7408              jz 0x36e8
000036E0  802E01            sub byte [rsi],0x1
000036E3  803E00            cmp byte [rsi],0x0
000036E6  75F8              jnz 0x36e0
000036E8  800601            add byte [rsi],0x1
000036EB  4883C603          add rsi,byte +0x3
000036EF  803E00            cmp byte [rsi],0x0
000036F2  75C7              jnz 0x36bb
000036F4  4883EE0A          sub rsi,byte +0xa
000036F8  803E00            cmp byte [rsi],0x0
000036FB  7599              jnz 0x3696
000036FD  803E00            cmp byte [rsi],0x0
00003700  0F855AFFFFFF      jnz near 0x3660
00003706  4883C607          add rsi,byte +0x7
0000370A  803E00            cmp byte [rsi],0x0
0000370D  7413              jz 0x3722
0000370F  802E01            sub byte [rsi],0x1
00003712  4883EE07          sub rsi,byte +0x7
00003716  800601            add byte [rsi],0x1
00003719  4883C607          add rsi,byte +0x7
0000371D  803E00            cmp byte [rsi],0x0
00003720  75ED              jnz 0x370f
00003722  4883EE07          sub rsi,byte +0x7
00003726  803E00            cmp byte [rsi],0x0
00003729  0F847E010000      jz near 0x38ad
0000372F  802E01            sub byte [rsi],0x1
00003732  4883C607          add rsi,byte +0x7
00003736  800601            add byte [rsi],0x1
00003739  4883C602          add rsi,byte +0x2
0000373D  803E00            cmp byte [rsi],0x0
00003740  7448              jz 0x378a
00003742  4883C601          add rsi,byte +0x1
00003746  800601            add byte [rsi],0x1
00003749  4883C604          add rsi,byte +0x4
0000374D  803E00            cmp byte [rsi],0x0
00003750  7413              jz 0x3765
00003752  802E01            sub byte [rsi],0x1
00003755  4883EE04          sub rsi,byte +0x4
00003759  802E01            sub byte [rsi],0x1
0000375C  4883C604          add rsi,byte +0x4
00003760  803E00            cmp byte [rsi],0x0
00003763  75ED              jnz 0x3752
00003765  4883EE04          sub rsi,byte +0x4
00003769  803E00            cmp byte [rsi],0x0
0000376C  7413              jz 0x3781
0000376E  802E01            sub byte [rsi],0x1
00003771  4883C604          add rsi,byte +0x4
00003775  800601            add byte [rsi],0x1
00003778  4883EE04          sub rsi,byte +0x4
0000377C  803E00            cmp byte [rsi],0x0
0000377F  75ED              jnz 0x376e
00003781  4883C608          add rsi,byte +0x8
00003785  803E00            cmp byte [rsi],0x0
00003788  75B8              jnz 0x3742
0000378A  4883EE02          sub rsi,byte +0x2
0000378E  800601            add byte [rsi],0x1
00003791  4883EE07          sub rsi,byte +0x7
00003795  803E00            cmp byte [rsi],0x0
00003798  7425              jz 0x37bf
0000379A  4883C605          add rsi,byte +0x5
0000379E  803E00            cmp byte [rsi],0x0
000037A1  7413              jz 0x37b6
000037A3  802E01            sub byte [rsi],0x1
000037A6  4883C602          add rsi,byte +0x2
000037AA  800601            add byte [rsi],0x1
000037AD  4883EE02          sub rsi,byte +0x2
000037B1  803E00            cmp byte [rsi],0x0
000037B4  75ED              jnz 0x37a3
000037B6  4883EE0E          sub rsi,byte +0xe
000037BA  803E00            cmp byte [rsi],0x0
000037BD  75DB              jnz 0x379a
000037BF  4883C609          add rsi,byte +0x9
000037C3  803E00            cmp byte [rsi],0x0
000037C6  7409              jz 0x37d1
000037C8  4883C609          add rsi,byte +0x9
000037CC  803E00            cmp byte [rsi],0x0
000037CF  75F7              jnz 0x37c8
000037D1  4883EE09          sub rsi,byte +0x9
000037D5  803E00            cmp byte [rsi],0x0
000037D8  0F84A7000000      jz near 0x3885
000037DE  4883C601          add rsi,byte +0x1
000037E2  803E00            cmp byte [rsi],0x0
000037E5  7408              jz 0x37ef
000037E7  802E01            sub byte [rsi],0x1
000037EA  803E00            cmp byte [rsi],0x0
000037ED  75F8              jnz 0x37e7
000037EF  4883EE01          sub rsi,byte +0x1
000037F3  802E01            sub byte [rsi],0x1
000037F6  4883C607          add rsi,byte +0x7
000037FA  803E00            cmp byte [rsi],0x0
000037FD  7456              jz 0x3855
000037FF  802E01            sub byte [rsi],0x1
00003802  4883EE07          sub rsi,byte +0x7
00003806  800601            add byte [rsi],0x1
00003809  4883C601          add rsi,byte +0x1
0000380D  803E00            cmp byte [rsi],0x0
00003810  741E              jz 0x3830
00003812  4883EE01          sub rsi,byte +0x1
00003816  802E01            sub byte [rsi],0x1
00003819  4883C601          add rsi,byte +0x1
0000381D  802E01            sub byte [rsi],0x1
00003820  4883EE03          sub rsi,byte +0x3
00003824  800601            add byte [rsi],0x1
00003827  4883C603          add rsi,byte +0x3
0000382B  803E00            cmp byte [rsi],0x0
0000382E  75E2              jnz 0x3812
00003830  4883EE01          sub rsi,byte +0x1
00003834  803E00            cmp byte [rsi],0x0
00003837  7413              jz 0x384c
00003839  802E01            sub byte [rsi],0x1
0000383C  4883C601          add rsi,byte +0x1
00003840  800601            add byte [rsi],0x1
00003843  4883EE01          sub rsi,byte +0x1
00003847  803E00            cmp byte [rsi],0x0
0000384A  75ED              jnz 0x3839
0000384C  4883C607          add rsi,byte +0x7
00003850  803E00            cmp byte [rsi],0x0
00003853  75AA              jnz 0x37ff
00003855  4883EE06          sub rsi,byte +0x6
00003859  803E00            cmp byte [rsi],0x0
0000385C  7413              jz 0x3871
0000385E  802E01            sub byte [rsi],0x1
00003861  4883C606          add rsi,byte +0x6
00003865  800601            add byte [rsi],0x1
00003868  4883EE06          sub rsi,byte +0x6
0000386C  803E00            cmp byte [rsi],0x0
0000386F  75ED              jnz 0x385e
00003871  4883EE01          sub rsi,byte +0x1
00003875  800601            add byte [rsi],0x1
00003878  4883EE09          sub rsi,byte +0x9
0000387C  803E00            cmp byte [rsi],0x0
0000387F  0F8559FFFFFF      jnz near 0x37de
00003885  4883C607          add rsi,byte +0x7
00003889  802E01            sub byte [rsi],0x1
0000388C  4883EE04          sub rsi,byte +0x4
00003890  803E00            cmp byte [rsi],0x0
00003893  7408              jz 0x389d
00003895  802E01            sub byte [rsi],0x1
00003898  803E00            cmp byte [rsi],0x0
0000389B  75F8              jnz 0x3895
0000389D  800601            add byte [rsi],0x1
000038A0  4883EE03          sub rsi,byte +0x3
000038A4  803E00            cmp byte [rsi],0x0
000038A7  0F8582FEFFFF      jnz near 0x372f
000038AD  800601            add byte [rsi],0x1
000038B0  4883C607          add rsi,byte +0x7
000038B4  803E00            cmp byte [rsi],0x0
000038B7  7413              jz 0x38cc
000038B9  802E01            sub byte [rsi],0x1
000038BC  4883EE07          sub rsi,byte +0x7
000038C0  802E01            sub byte [rsi],0x1
000038C3  4883C607          add rsi,byte +0x7
000038C7  803E00            cmp byte [rsi],0x0
000038CA  75ED              jnz 0x38b9
000038CC  800601            add byte [rsi],0x1
000038CF  4883EE07          sub rsi,byte +0x7
000038D3  803E00            cmp byte [rsi],0x0
000038D6  0F846E030000      jz near 0x3c4a
000038DC  802E01            sub byte [rsi],0x1
000038DF  4883C607          add rsi,byte +0x7
000038E3  802E01            sub byte [rsi],0x1
000038E6  4883C602          add rsi,byte +0x2
000038EA  803E00            cmp byte [rsi],0x0
000038ED  7425              jz 0x3914
000038EF  4883C605          add rsi,byte +0x5
000038F3  803E00            cmp byte [rsi],0x0
000038F6  7413              jz 0x390b
000038F8  802E01            sub byte [rsi],0x1
000038FB  4883C602          add rsi,byte +0x2
000038FF  800601            add byte [rsi],0x1
00003902  4883EE02          sub rsi,byte +0x2
00003906  803E00            cmp byte [rsi],0x0
00003909  75ED              jnz 0x38f8
0000390B  4883C604          add rsi,byte +0x4
0000390F  803E00            cmp byte [rsi],0x0
00003912  75DB              jnz 0x38ef
00003914  4883EE09          sub rsi,byte +0x9
00003918  803E00            cmp byte [rsi],0x0
0000391B  0F84A7000000      jz near 0x39c8
00003921  4883C601          add rsi,byte +0x1
00003925  803E00            cmp byte [rsi],0x0
00003928  7408              jz 0x3932
0000392A  802E01            sub byte [rsi],0x1
0000392D  803E00            cmp byte [rsi],0x0
00003930  75F8              jnz 0x392a
00003932  4883EE01          sub rsi,byte +0x1
00003936  802E01            sub byte [rsi],0x1
00003939  4883C607          add rsi,byte +0x7
0000393D  803E00            cmp byte [rsi],0x0
00003940  7456              jz 0x3998
00003942  802E01            sub byte [rsi],0x1
00003945  4883EE07          sub rsi,byte +0x7
00003949  800601            add byte [rsi],0x1
0000394C  4883C601          add rsi,byte +0x1
00003950  803E00            cmp byte [rsi],0x0
00003953  741E              jz 0x3973
00003955  4883EE01          sub rsi,byte +0x1
00003959  802E01            sub byte [rsi],0x1
0000395C  4883C601          add rsi,byte +0x1
00003960  802E01            sub byte [rsi],0x1
00003963  4883EE03          sub rsi,byte +0x3
00003967  800601            add byte [rsi],0x1
0000396A  4883C603          add rsi,byte +0x3
0000396E  803E00            cmp byte [rsi],0x0
00003971  75E2              jnz 0x3955
00003973  4883EE01          sub rsi,byte +0x1
00003977  803E00            cmp byte [rsi],0x0
0000397A  7413              jz 0x398f
0000397C  802E01            sub byte [rsi],0x1
0000397F  4883C601          add rsi,byte +0x1
00003983  800601            add byte [rsi],0x1
00003986  4883EE01          sub rsi,byte +0x1
0000398A  803E00            cmp byte [rsi],0x0
0000398D  75ED              jnz 0x397c
0000398F  4883C607          add rsi,byte +0x7
00003993  803E00            cmp byte [rsi],0x0
00003996  75AA              jnz 0x3942
00003998  4883EE06          sub rsi,byte +0x6
0000399C  803E00            cmp byte [rsi],0x0
0000399F  7413              jz 0x39b4
000039A1  802E01            sub byte [rsi],0x1
000039A4  4883C606          add rsi,byte +0x6
000039A8  800601            add byte [rsi],0x1
000039AB  4883EE06          sub rsi,byte +0x6
000039AF  803E00            cmp byte [rsi],0x0
000039B2  75ED              jnz 0x39a1
000039B4  4883EE01          sub rsi,byte +0x1
000039B8  800601            add byte [rsi],0x1
000039BB  4883EE09          sub rsi,byte +0x9
000039BF  803E00            cmp byte [rsi],0x0
000039C2  0F8559FFFFFF      jnz near 0x3921
000039C8  4883C601          add rsi,byte +0x1
000039CC  800605            add byte [rsi],0x5
000039CF  803E00            cmp byte [rsi],0x0
000039D2  7424              jz 0x39f8
000039D4  802E01            sub byte [rsi],0x1
000039D7  803E00            cmp byte [rsi],0x0
000039DA  7413              jz 0x39ef
000039DC  802E01            sub byte [rsi],0x1
000039DF  4883C609          add rsi,byte +0x9
000039E3  800601            add byte [rsi],0x1
000039E6  4883EE09          sub rsi,byte +0x9
000039EA  803E00            cmp byte [rsi],0x0
000039ED  75ED              jnz 0x39dc
000039EF  4883C609          add rsi,byte +0x9
000039F3  803E00            cmp byte [rsi],0x0
000039F6  75DC              jnz 0x39d4
000039F8  4883C604          add rsi,byte +0x4
000039FC  800601            add byte [rsi],0x1
000039FF  4883EE05          sub rsi,byte +0x5
00003A03  803E00            cmp byte [rsi],0x0
00003A06  7409              jz 0x3a11
00003A08  4883EE09          sub rsi,byte +0x9
00003A0C  803E00            cmp byte [rsi],0x0
00003A0F  75F7              jnz 0x3a08
00003A11  4883C609          add rsi,byte +0x9
00003A15  803E00            cmp byte [rsi],0x0
00003A18  0F84B7010000      jz near 0x3bd5
00003A1E  4883C605          add rsi,byte +0x5
00003A22  803E00            cmp byte [rsi],0x0
00003A25  7413              jz 0x3a3a
00003A27  802E01            sub byte [rsi],0x1
00003A2A  4883EE05          sub rsi,byte +0x5
00003A2E  802E01            sub byte [rsi],0x1
00003A31  4883C605          add rsi,byte +0x5
00003A35  803E00            cmp byte [rsi],0x0
00003A38  75ED              jnz 0x3a27
00003A3A  800601            add byte [rsi],0x1
00003A3D  4883EE05          sub rsi,byte +0x5
00003A41  803E00            cmp byte [rsi],0x0
00003A44  0F848A000000      jz near 0x3ad4
00003A4A  802E01            sub byte [rsi],0x1
00003A4D  4883C605          add rsi,byte +0x5
00003A51  802E01            sub byte [rsi],0x1
00003A54  4883C602          add rsi,byte +0x2
00003A58  803E00            cmp byte [rsi],0x0
00003A5B  7413              jz 0x3a70
00003A5D  802E01            sub byte [rsi],0x1
00003A60  4883EE07          sub rsi,byte +0x7
00003A64  800601            add byte [rsi],0x1
00003A67  4883C607          add rsi,byte +0x7
00003A6B  803E00            cmp byte [rsi],0x0
00003A6E  75ED              jnz 0x3a5d
00003A70  4883EE07          sub rsi,byte +0x7
00003A74  803E00            cmp byte [rsi],0x0
00003A77  7452              jz 0x3acb
00003A79  802E01            sub byte [rsi],0x1
00003A7C  4883C607          add rsi,byte +0x7
00003A80  800601            add byte [rsi],0x1
00003A83  4883EE10          sub rsi,byte +0x10
00003A87  803E00            cmp byte [rsi],0x0
00003A8A  7409              jz 0x3a95
00003A8C  4883EE09          sub rsi,byte +0x9
00003A90  803E00            cmp byte [rsi],0x0
00003A93  75F7              jnz 0x3a8c
00003A95  4883C604          add rsi,byte +0x4
00003A99  803E00            cmp byte [rsi],0x0
00003A9C  7408              jz 0x3aa6
00003A9E  802E01            sub byte [rsi],0x1
00003AA1  803E00            cmp byte [rsi],0x0
00003AA4  75F8              jnz 0x3a9e
00003AA6  800601            add byte [rsi],0x1
00003AA9  4883C605          add rsi,byte +0x5
00003AAD  803E00            cmp byte [rsi],0x0
00003AB0  7409              jz 0x3abb
00003AB2  4883C609          add rsi,byte +0x9
00003AB6  803E00            cmp byte [rsi],0x0
00003AB9  75F7              jnz 0x3ab2
00003ABB  4883C601          add rsi,byte +0x1
00003ABF  800601            add byte [rsi],0x1
00003AC2  4883EE01          sub rsi,byte +0x1
00003AC6  803E00            cmp byte [rsi],0x0
00003AC9  75AE              jnz 0x3a79
00003ACB  803E00            cmp byte [rsi],0x0
00003ACE  0F8576FFFFFF      jnz near 0x3a4a
00003AD4  800601            add byte [rsi],0x1
00003AD7  4883C607          add rsi,byte +0x7
00003ADB  803E00            cmp byte [rsi],0x0
00003ADE  7413              jz 0x3af3
00003AE0  802E01            sub byte [rsi],0x1
00003AE3  4883EE07          sub rsi,byte +0x7
00003AE7  802E01            sub byte [rsi],0x1
00003AEA  4883C607          add rsi,byte +0x7
00003AEE  803E00            cmp byte [rsi],0x0
00003AF1  75ED              jnz 0x3ae0
00003AF3  800601            add byte [rsi],0x1
00003AF6  4883EE07          sub rsi,byte +0x7
00003AFA  803E00            cmp byte [rsi],0x0
00003AFD  0F849B000000      jz near 0x3b9e
00003B03  802E01            sub byte [rsi],0x1
00003B06  4883C607          add rsi,byte +0x7
00003B0A  802E01            sub byte [rsi],0x1
00003B0D  4883EE02          sub rsi,byte +0x2
00003B11  803E00            cmp byte [rsi],0x0
00003B14  7413              jz 0x3b29
00003B16  802E01            sub byte [rsi],0x1
00003B19  4883EE05          sub rsi,byte +0x5
00003B1D  800601            add byte [rsi],0x1
00003B20  4883C605          add rsi,byte +0x5
00003B24  803E00            cmp byte [rsi],0x0
00003B27  75ED              jnz 0x3b16
00003B29  4883EE05          sub rsi,byte +0x5
00003B2D  803E00            cmp byte [rsi],0x0
00003B30  0F845F000000      jz near 0x3b95
00003B36  802E01            sub byte [rsi],0x1
00003B39  4883C605          add rsi,byte +0x5
00003B3D  800601            add byte [rsi],0x1
00003B40  4883EE0E          sub rsi,byte +0xe
00003B44  803E00            cmp byte [rsi],0x0
00003B47  7409              jz 0x3b52
00003B49  4883EE09          sub rsi,byte +0x9
00003B4D  803E00            cmp byte [rsi],0x0
00003B50  75F7              jnz 0x3b49
00003B52  4883C603          add rsi,byte +0x3
00003B56  803E00            cmp byte [rsi],0x0
00003B59  7408              jz 0x3b63
00003B5B  802E01            sub byte [rsi],0x1
00003B5E  803E00            cmp byte [rsi],0x0
00003B61  75F8              jnz 0x3b5b
00003B63  800601            add byte [rsi],0x1
00003B66  4883C606          add rsi,byte +0x6
00003B6A  803E00            cmp byte [rsi],0x0
00003B6D  7409              jz 0x3b78
00003B6F  4883C609          add rsi,byte +0x9
00003B73  803E00            cmp byte [rsi],0x0
00003B76  75F7              jnz 0x3b6f
00003B78  4883C601          add rsi,byte +0x1
00003B7C  803E00            cmp byte [rsi],0x0
00003B7F  7408              jz 0x3b89
00003B81  802E01            sub byte [rsi],0x1
00003B84  803E00            cmp byte [rsi],0x0
00003B87  75F8              jnz 0x3b81
00003B89  800601            add byte [rsi],0x1
00003B8C  4883EE01          sub rsi,byte +0x1
00003B90  803E00            cmp byte [rsi],0x0
00003B93  75A1              jnz 0x3b36
00003B95  803E00            cmp byte [rsi],0x0
00003B98  0F8565FFFFFF      jnz near 0x3b03
00003B9E  800601            add byte [rsi],0x1
00003BA1  4883C601          add rsi,byte +0x1
00003BA5  803E00            cmp byte [rsi],0x0
00003BA8  741E              jz 0x3bc8
00003BAA  802E01            sub byte [rsi],0x1
00003BAD  4883EE01          sub rsi,byte +0x1
00003BB1  803E00            cmp byte [rsi],0x0
00003BB4  7409              jz 0x3bbf
00003BB6  4883C609          add rsi,byte +0x9
00003BBA  803E00            cmp byte [rsi],0x0
00003BBD  75F7              jnz 0x3bb6
00003BBF  4883EE08          sub rsi,byte +0x8
00003BC3  803E00            cmp byte [rsi],0x0
00003BC6  75E2              jnz 0x3baa
00003BC8  4883C608          add rsi,byte +0x8
00003BCC  803E00            cmp byte [rsi],0x0
00003BCF  0F8549FEFFFF      jnz near 0x3a1e
00003BD5  4883EE09          sub rsi,byte +0x9
00003BD9  803E00            cmp byte [rsi],0x0
00003BDC  7409              jz 0x3be7
00003BDE  4883EE09          sub rsi,byte +0x9
00003BE2  803E00            cmp byte [rsi],0x0
00003BE5  75F7              jnz 0x3bde
00003BE7  4883C604          add rsi,byte +0x4
00003BEB  803E00            cmp byte [rsi],0x0
00003BEE  7408              jz 0x3bf8
00003BF0  802E01            sub byte [rsi],0x1
00003BF3  803E00            cmp byte [rsi],0x0
00003BF6  75F8              jnz 0x3bf0
00003BF8  4883EE03          sub rsi,byte +0x3
00003BFC  800605            add byte [rsi],0x5
00003BFF  803E00            cmp byte [rsi],0x0
00003C02  7424              jz 0x3c28
00003C04  802E01            sub byte [rsi],0x1
00003C07  803E00            cmp byte [rsi],0x0
00003C0A  7413              jz 0x3c1f
00003C0C  802E01            sub byte [rsi],0x1
00003C0F  4883C609          add rsi,byte +0x9
00003C13  800601            add byte [rsi],0x1
00003C16  4883EE09          sub rsi,byte +0x9
00003C1A  803E00            cmp byte [rsi],0x0
00003C1D  75ED              jnz 0x3c0c
00003C1F  4883C609          add rsi,byte +0x9
00003C23  803E00            cmp byte [rsi],0x0
00003C26  75DC              jnz 0x3c04
00003C28  4883C604          add rsi,byte +0x4
00003C2C  802E01            sub byte [rsi],0x1
00003C2F  4883EE05          sub rsi,byte +0x5
00003C33  803E00            cmp byte [rsi],0x0
00003C36  7409              jz 0x3c41
00003C38  4883EE09          sub rsi,byte +0x9
00003C3C  803E00            cmp byte [rsi],0x0
00003C3F  75F7              jnz 0x3c38
00003C41  803E00            cmp byte [rsi],0x0
00003C44  0F8592FCFFFF      jnz near 0x38dc
00003C4A  4883C603          add rsi,byte +0x3
00003C4E  803E00            cmp byte [rsi],0x0
00003C51  0F858CC4FFFF      jnz near 0xe3
00003C57  4883EE04          sub rsi,byte +0x4
00003C5B  57                push rdi
00003C5C  4C8B17            mov r10,[rdi]
00003C5F  488B3E            mov rdi,[rsi]
00003C62  41FFD2            call r10
00003C65  5F                pop rdi
00003C66  488B7708          mov rsi,[rdi+0x8]
00003C6A  4883C60A          add rsi,byte +0xa
00003C6E  803E00            cmp byte [rsi],0x0
00003C71  741A              jz 0x3c8d
00003C73  4883C606          add rsi,byte +0x6
00003C77  803E00            cmp byte [rsi],0x0
00003C7A  7408              jz 0x3c84
00003C7C  802E01            sub byte [rsi],0x1
00003C7F  803E00            cmp byte [rsi],0x0
00003C82  75F8              jnz 0x3c7c
00003C84  4883C603          add rsi,byte +0x3
00003C88  803E00            cmp byte [rsi],0x0
00003C8B  75E6              jnz 0x3c73
00003C8D  4883EE09          sub rsi,byte +0x9
00003C91  803E00            cmp byte [rsi],0x0
00003C94  7409              jz 0x3c9f
00003C96  4883EE09          sub rsi,byte +0x9
00003C9A  803E00            cmp byte [rsi],0x0
00003C9D  75F7              jnz 0x3c96
00003C9F  4883C601          add rsi,byte +0x1
00003CA3  80060A            add byte [rsi],0xa
00003CA6  803E00            cmp byte [rsi],0x0
00003CA9  7424              jz 0x3ccf
00003CAB  802E01            sub byte [rsi],0x1
00003CAE  803E00            cmp byte [rsi],0x0
00003CB1  7413              jz 0x3cc6
00003CB3  802E01            sub byte [rsi],0x1
00003CB6  4883C609          add rsi,byte +0x9
00003CBA  800601            add byte [rsi],0x1
00003CBD  4883EE09          sub rsi,byte +0x9
00003CC1  803E00            cmp byte [rsi],0x0
00003CC4  75ED              jnz 0x3cb3
00003CC6  4883C609          add rsi,byte +0x9
00003CCA  803E00            cmp byte [rsi],0x0
00003CCD  75DC              jnz 0x3cab
00003CCF  4883C605          add rsi,byte +0x5
00003CD3  800601            add byte [rsi],0x1
00003CD6  4883C609          add rsi,byte +0x9
00003CDA  800601            add byte [rsi],0x1
00003CDD  4883EE0F          sub rsi,byte +0xf
00003CE1  803E00            cmp byte [rsi],0x0
00003CE4  7409              jz 0x3cef
00003CE6  4883EE09          sub rsi,byte +0x9
00003CEA  803E00            cmp byte [rsi],0x0
00003CED  75F7              jnz 0x3ce6
00003CEF  4883C608          add rsi,byte +0x8
00003CF3  803E00            cmp byte [rsi],0x0
00003CF6  7413              jz 0x3d0b
00003CF8  802E01            sub byte [rsi],0x1
00003CFB  4883EE08          sub rsi,byte +0x8
00003CFF  800601            add byte [rsi],0x1
00003D02  4883C608          add rsi,byte +0x8
00003D06  803E00            cmp byte [rsi],0x0
00003D09  75ED              jnz 0x3cf8
00003D0B  4883EE08          sub rsi,byte +0x8
00003D0F  803E00            cmp byte [rsi],0x0
00003D12  0F84A6000000      jz near 0x3dbe
00003D18  802E01            sub byte [rsi],0x1
00003D1B  4883C608          add rsi,byte +0x8
00003D1F  800601            add byte [rsi],0x1
00003D22  803E00            cmp byte [rsi],0x0
00003D25  7408              jz 0x3d2f
00003D27  802E01            sub byte [rsi],0x1
00003D2A  803E00            cmp byte [rsi],0x0
00003D2D  75F8              jnz 0x3d27
00003D2F  4883C601          add rsi,byte +0x1
00003D33  803E00            cmp byte [rsi],0x0
00003D36  7409              jz 0x3d41
00003D38  4883C609          add rsi,byte +0x9
00003D3C  803E00            cmp byte [rsi],0x0
00003D3F  75F7              jnz 0x3d38
00003D41  4883EE09          sub rsi,byte +0x9
00003D45  803E00            cmp byte [rsi],0x0
00003D48  0F8467000000      jz near 0x3db5
00003D4E  4883C608          add rsi,byte +0x8
00003D52  803E00            cmp byte [rsi],0x0
00003D55  7413              jz 0x3d6a
00003D57  802E01            sub byte [rsi],0x1
00003D5A  4883EE07          sub rsi,byte +0x7
00003D5E  800601            add byte [rsi],0x1
00003D61  4883C607          add rsi,byte +0x7
00003D65  803E00            cmp byte [rsi],0x0
00003D68  75ED              jnz 0x3d57
00003D6A  4883EE07          sub rsi,byte +0x7
00003D6E  803E00            cmp byte [rsi],0x0
00003D71  7439              jz 0x3dac
00003D73  802E01            sub byte [rsi],0x1
00003D76  4883C607          add rsi,byte +0x7
00003D7A  800601            add byte [rsi],0x1
00003D7D  4883EE08          sub rsi,byte +0x8
00003D81  803E00            cmp byte [rsi],0x0
00003D84  7409              jz 0x3d8f
00003D86  4883EE09          sub rsi,byte +0x9
00003D8A  803E00            cmp byte [rsi],0x0
00003D8D  75F7              jnz 0x3d86
00003D8F  4883C608          add rsi,byte +0x8
00003D93  803E00            cmp byte [rsi],0x0
00003D96  7408              jz 0x3da0
00003D98  802E01            sub byte [rsi],0x1
00003D9B  803E00            cmp byte [rsi],0x0
00003D9E  75F8              jnz 0x3d98
00003DA0  800601            add byte [rsi],0x1
00003DA3  4883C602          add rsi,byte +0x2
00003DA7  803E00            cmp byte [rsi],0x0
00003DAA  75C7              jnz 0x3d73
00003DAC  4883EE0A          sub rsi,byte +0xa
00003DB0  803E00            cmp byte [rsi],0x0
00003DB3  7599              jnz 0x3d4e
00003DB5  803E00            cmp byte [rsi],0x0
00003DB8  0F855AFFFFFF      jnz near 0x3d18
00003DBE  4883C608          add rsi,byte +0x8
00003DC2  803E00            cmp byte [rsi],0x0
00003DC5  7413              jz 0x3dda
00003DC7  802E01            sub byte [rsi],0x1
00003DCA  4883EE08          sub rsi,byte +0x8
00003DCE  800601            add byte [rsi],0x1
00003DD1  4883C608          add rsi,byte +0x8
00003DD5  803E00            cmp byte [rsi],0x0
00003DD8  75ED              jnz 0x3dc7
00003DDA  4883EE08          sub rsi,byte +0x8
00003DDE  803E00            cmp byte [rsi],0x0
00003DE1  0F847E010000      jz near 0x3f65
00003DE7  802E01            sub byte [rsi],0x1
00003DEA  4883C608          add rsi,byte +0x8
00003DEE  800601            add byte [rsi],0x1
00003DF1  4883C601          add rsi,byte +0x1
00003DF5  803E00            cmp byte [rsi],0x0
00003DF8  7448              jz 0x3e42
00003DFA  4883C601          add rsi,byte +0x1
00003DFE  800601            add byte [rsi],0x1
00003E01  4883C605          add rsi,byte +0x5
00003E05  803E00            cmp byte [rsi],0x0
00003E08  7413              jz 0x3e1d
00003E0A  802E01            sub byte [rsi],0x1
00003E0D  4883EE05          sub rsi,byte +0x5
00003E11  802E01            sub byte [rsi],0x1
00003E14  4883C605          add rsi,byte +0x5
00003E18  803E00            cmp byte [rsi],0x0
00003E1B  75ED              jnz 0x3e0a
00003E1D  4883EE05          sub rsi,byte +0x5
00003E21  803E00            cmp byte [rsi],0x0
00003E24  7413              jz 0x3e39
00003E26  802E01            sub byte [rsi],0x1
00003E29  4883C605          add rsi,byte +0x5
00003E2D  800601            add byte [rsi],0x1
00003E30  4883EE05          sub rsi,byte +0x5
00003E34  803E00            cmp byte [rsi],0x0
00003E37  75ED              jnz 0x3e26
00003E39  4883C608          add rsi,byte +0x8
00003E3D  803E00            cmp byte [rsi],0x0
00003E40  75B8              jnz 0x3dfa
00003E42  4883EE01          sub rsi,byte +0x1
00003E46  800601            add byte [rsi],0x1
00003E49  4883EE08          sub rsi,byte +0x8
00003E4D  803E00            cmp byte [rsi],0x0
00003E50  7425              jz 0x3e77
00003E52  4883C606          add rsi,byte +0x6
00003E56  803E00            cmp byte [rsi],0x0
00003E59  7413              jz 0x3e6e
00003E5B  802E01            sub byte [rsi],0x1
00003E5E  4883C602          add rsi,byte +0x2
00003E62  800601            add byte [rsi],0x1
00003E65  4883EE02          sub rsi,byte +0x2
00003E69  803E00            cmp byte [rsi],0x0
00003E6C  75ED              jnz 0x3e5b
00003E6E  4883EE0F          sub rsi,byte +0xf
00003E72  803E00            cmp byte [rsi],0x0
00003E75  75DB              jnz 0x3e52
00003E77  4883C609          add rsi,byte +0x9
00003E7B  803E00            cmp byte [rsi],0x0
00003E7E  7409              jz 0x3e89
00003E80  4883C609          add rsi,byte +0x9
00003E84  803E00            cmp byte [rsi],0x0
00003E87  75F7              jnz 0x3e80
00003E89  4883EE09          sub rsi,byte +0x9
00003E8D  803E00            cmp byte [rsi],0x0
00003E90  0F84A7000000      jz near 0x3f3d
00003E96  4883C601          add rsi,byte +0x1
00003E9A  803E00            cmp byte [rsi],0x0
00003E9D  7408              jz 0x3ea7
00003E9F  802E01            sub byte [rsi],0x1
00003EA2  803E00            cmp byte [rsi],0x0
00003EA5  75F8              jnz 0x3e9f
00003EA7  4883EE01          sub rsi,byte +0x1
00003EAB  802E01            sub byte [rsi],0x1
00003EAE  4883C608          add rsi,byte +0x8
00003EB2  803E00            cmp byte [rsi],0x0
00003EB5  7456              jz 0x3f0d
00003EB7  802E01            sub byte [rsi],0x1
00003EBA  4883EE08          sub rsi,byte +0x8
00003EBE  800601            add byte [rsi],0x1
00003EC1  4883C601          add rsi,byte +0x1
00003EC5  803E00            cmp byte [rsi],0x0
00003EC8  741E              jz 0x3ee8
00003ECA  4883EE01          sub rsi,byte +0x1
00003ECE  802E01            sub byte [rsi],0x1
00003ED1  4883C601          add rsi,byte +0x1
00003ED5  802E01            sub byte [rsi],0x1
00003ED8  4883EE02          sub rsi,byte +0x2
00003EDC  800601            add byte [rsi],0x1
00003EDF  4883C602          add rsi,byte +0x2
00003EE3  803E00            cmp byte [rsi],0x0
00003EE6  75E2              jnz 0x3eca
00003EE8  4883EE01          sub rsi,byte +0x1
00003EEC  803E00            cmp byte [rsi],0x0
00003EEF  7413              jz 0x3f04
00003EF1  802E01            sub byte [rsi],0x1
00003EF4  4883C601          add rsi,byte +0x1
00003EF8  800601            add byte [rsi],0x1
00003EFB  4883EE01          sub rsi,byte +0x1
00003EFF  803E00            cmp byte [rsi],0x0
00003F02  75ED              jnz 0x3ef1
00003F04  4883C608          add rsi,byte +0x8
00003F08  803E00            cmp byte [rsi],0x0
00003F0B  75AA              jnz 0x3eb7
00003F0D  4883EE07          sub rsi,byte +0x7
00003F11  803E00            cmp byte [rsi],0x0
00003F14  7413              jz 0x3f29
00003F16  802E01            sub byte [rsi],0x1
00003F19  4883C607          add rsi,byte +0x7
00003F1D  800601            add byte [rsi],0x1
00003F20  4883EE07          sub rsi,byte +0x7
00003F24  803E00            cmp byte [rsi],0x0
00003F27  75ED              jnz 0x3f16
00003F29  4883EE01          sub rsi,byte +0x1
00003F2D  800601            add byte [rsi],0x1
00003F30  4883EE09          sub rsi,byte +0x9
00003F34  803E00            cmp byte [rsi],0x0
00003F37  0F8559FFFFFF      jnz near 0x3e96
00003F3D  4883C608          add rsi,byte +0x8
00003F41  802E01            sub byte [rsi],0x1
00003F44  4883EE05          sub rsi,byte +0x5
00003F48  803E00            cmp byte [rsi],0x0
00003F4B  7408              jz 0x3f55
00003F4D  802E01            sub byte [rsi],0x1
00003F50  803E00            cmp byte [rsi],0x0
00003F53  75F8              jnz 0x3f4d
00003F55  800601            add byte [rsi],0x1
00003F58  4883EE03          sub rsi,byte +0x3
00003F5C  803E00            cmp byte [rsi],0x0
00003F5F  0F8582FEFFFF      jnz near 0x3de7
00003F65  800601            add byte [rsi],0x1
00003F68  4883C608          add rsi,byte +0x8
00003F6C  803E00            cmp byte [rsi],0x0
00003F6F  7413              jz 0x3f84
00003F71  802E01            sub byte [rsi],0x1
00003F74  4883EE08          sub rsi,byte +0x8
00003F78  802E01            sub byte [rsi],0x1
00003F7B  4883C608          add rsi,byte +0x8
00003F7F  803E00            cmp byte [rsi],0x0
00003F82  75ED              jnz 0x3f71
00003F84  800601            add byte [rsi],0x1
00003F87  4883EE08          sub rsi,byte +0x8
00003F8B  803E00            cmp byte [rsi],0x0
00003F8E  0F847C030000      jz near 0x4310
00003F94  802E01            sub byte [rsi],0x1
00003F97  4883C608          add rsi,byte +0x8
00003F9B  802E01            sub byte [rsi],0x1
00003F9E  4883C601          add rsi,byte +0x1
00003FA2  803E00            cmp byte [rsi],0x0
00003FA5  7425              jz 0x3fcc
00003FA7  4883C606          add rsi,byte +0x6
00003FAB  803E00            cmp byte [rsi],0x0
00003FAE  7413              jz 0x3fc3
00003FB0  802E01            sub byte [rsi],0x1
00003FB3  4883C602          add rsi,byte +0x2
00003FB7  800601            add byte [rsi],0x1
00003FBA  4883EE02          sub rsi,byte +0x2
00003FBE  803E00            cmp byte [rsi],0x0
00003FC1  75ED              jnz 0x3fb0
00003FC3  4883C603          add rsi,byte +0x3
00003FC7  803E00            cmp byte [rsi],0x0
00003FCA  75DB              jnz 0x3fa7
00003FCC  4883EE09          sub rsi,byte +0x9
00003FD0  803E00            cmp byte [rsi],0x0
00003FD3  0F84A7000000      jz near 0x4080
00003FD9  4883C601          add rsi,byte +0x1
00003FDD  803E00            cmp byte [rsi],0x0
00003FE0  7408              jz 0x3fea
00003FE2  802E01            sub byte [rsi],0x1
00003FE5  803E00            cmp byte [rsi],0x0
00003FE8  75F8              jnz 0x3fe2
00003FEA  4883EE01          sub rsi,byte +0x1
00003FEE  802E01            sub byte [rsi],0x1
00003FF1  4883C608          add rsi,byte +0x8
00003FF5  803E00            cmp byte [rsi],0x0
00003FF8  7456              jz 0x4050
00003FFA  802E01            sub byte [rsi],0x1
00003FFD  4883EE08          sub rsi,byte +0x8
00004001  800601            add byte [rsi],0x1
00004004  4883C601          add rsi,byte +0x1
00004008  803E00            cmp byte [rsi],0x0
0000400B  741E              jz 0x402b
0000400D  4883EE01          sub rsi,byte +0x1
00004011  802E01            sub byte [rsi],0x1
00004014  4883C601          add rsi,byte +0x1
00004018  802E01            sub byte [rsi],0x1
0000401B  4883EE02          sub rsi,byte +0x2
0000401F  800601            add byte [rsi],0x1
00004022  4883C602          add rsi,byte +0x2
00004026  803E00            cmp byte [rsi],0x0
00004029  75E2              jnz 0x400d
0000402B  4883EE01          sub rsi,byte +0x1
0000402F  803E00            cmp byte [rsi],0x0
00004032  7413              jz 0x4047
00004034  802E01            sub byte [rsi],0x1
00004037  4883C601          add rsi,byte +0x1
0000403B  800601            add byte [rsi],0x1
0000403E  4883EE01          sub rsi,byte +0x1
00004042  803E00            cmp byte [rsi],0x0
00004045  75ED              jnz 0x4034
00004047  4883C608          add rsi,byte +0x8
0000404B  803E00            cmp byte [rsi],0x0
0000404E  75AA              jnz 0x3ffa
00004050  4883EE07          sub rsi,byte +0x7
00004054  803E00            cmp byte [rsi],0x0
00004057  7413              jz 0x406c
00004059  802E01            sub byte [rsi],0x1
0000405C  4883C607          add rsi,byte +0x7
00004060  800601            add byte [rsi],0x1
00004063  4883EE07          sub rsi,byte +0x7
00004067  803E00            cmp byte [rsi],0x0
0000406A  75ED              jnz 0x4059
0000406C  4883EE01          sub rsi,byte +0x1
00004070  800601            add byte [rsi],0x1
00004073  4883EE09          sub rsi,byte +0x9
00004077  803E00            cmp byte [rsi],0x0
0000407A  0F8559FFFFFF      jnz near 0x3fd9
00004080  4883C601          add rsi,byte +0x1
00004084  800605            add byte [rsi],0x5
00004087  803E00            cmp byte [rsi],0x0
0000408A  7424              jz 0x40b0
0000408C  802E01            sub byte [rsi],0x1
0000408F  803E00            cmp byte [rsi],0x0
00004092  7413              jz 0x40a7
00004094  802E01            sub byte [rsi],0x1
00004097  4883C609          add rsi,byte +0x9
0000409B  800601            add byte [rsi],0x1
0000409E  4883EE09          sub rsi,byte +0x9
000040A2  803E00            cmp byte [rsi],0x0
000040A5  75ED              jnz 0x4094
000040A7  4883C609          add rsi,byte +0x9
000040AB  803E00            cmp byte [rsi],0x0
000040AE  75DC              jnz 0x408c
000040B0  4883C605          add rsi,byte +0x5
000040B4  800601            add byte [rsi],0x1
000040B7  4883C61B          add rsi,byte +0x1b
000040BB  800601            add byte [rsi],0x1
000040BE  4883EE06          sub rsi,byte +0x6
000040C2  803E00            cmp byte [rsi],0x0
000040C5  7409              jz 0x40d0
000040C7  4883EE09          sub rsi,byte +0x9
000040CB  803E00            cmp byte [rsi],0x0
000040CE  75F7              jnz 0x40c7
000040D0  4883C609          add rsi,byte +0x9
000040D4  803E00            cmp byte [rsi],0x0
000040D7  0F84B7010000      jz near 0x4294
000040DD  4883C606          add rsi,byte +0x6
000040E1  803E00            cmp byte [rsi],0x0
000040E4  7413              jz 0x40f9
000040E6  802E01            sub byte [rsi],0x1
000040E9  4883EE06          sub rsi,byte +0x6
000040ED  802E01            sub byte [rsi],0x1
000040F0  4883C606          add rsi,byte +0x6
000040F4  803E00            cmp byte [rsi],0x0
000040F7  75ED              jnz 0x40e6
000040F9  800601            add byte [rsi],0x1
000040FC  4883EE06          sub rsi,byte +0x6
00004100  803E00            cmp byte [rsi],0x0
00004103  0F848A000000      jz near 0x4193
00004109  802E01            sub byte [rsi],0x1
0000410C  4883C606          add rsi,byte +0x6
00004110  802E01            sub byte [rsi],0x1
00004113  4883C602          add rsi,byte +0x2
00004117  803E00            cmp byte [rsi],0x0
0000411A  7413              jz 0x412f
0000411C  802E01            sub byte [rsi],0x1
0000411F  4883EE08          sub rsi,byte +0x8
00004123  800601            add byte [rsi],0x1
00004126  4883C608          add rsi,byte +0x8
0000412A  803E00            cmp byte [rsi],0x0
0000412D  75ED              jnz 0x411c
0000412F  4883EE08          sub rsi,byte +0x8
00004133  803E00            cmp byte [rsi],0x0
00004136  7452              jz 0x418a
00004138  802E01            sub byte [rsi],0x1
0000413B  4883C608          add rsi,byte +0x8
0000413F  800601            add byte [rsi],0x1
00004142  4883EE11          sub rsi,byte +0x11
00004146  803E00            cmp byte [rsi],0x0
00004149  7409              jz 0x4154
0000414B  4883EE09          sub rsi,byte +0x9
0000414F  803E00            cmp byte [rsi],0x0
00004152  75F7              jnz 0x414b
00004154  4883C604          add rsi,byte +0x4
00004158  803E00            cmp byte [rsi],0x0
0000415B  7408              jz 0x4165
0000415D  802E01            sub byte [rsi],0x1
00004160  803E00            cmp byte [rsi],0x0
00004163  75F8              jnz 0x415d
00004165  800601            add byte [rsi],0x1
00004168  4883C605          add rsi,byte +0x5
0000416C  803E00            cmp byte [rsi],0x0
0000416F  7409              jz 0x417a
00004171  4883C609          add rsi,byte +0x9
00004175  803E00            cmp byte [rsi],0x0
00004178  75F7              jnz 0x4171
0000417A  4883C601          add rsi,byte +0x1
0000417E  800601            add byte [rsi],0x1
00004181  4883EE01          sub rsi,byte +0x1
00004185  803E00            cmp byte [rsi],0x0
00004188  75AE              jnz 0x4138
0000418A  803E00            cmp byte [rsi],0x0
0000418D  0F8576FFFFFF      jnz near 0x4109
00004193  800601            add byte [rsi],0x1
00004196  4883C608          add rsi,byte +0x8
0000419A  803E00            cmp byte [rsi],0x0
0000419D  7413              jz 0x41b2
0000419F  802E01            sub byte [rsi],0x1
000041A2  4883EE08          sub rsi,byte +0x8
000041A6  802E01            sub byte [rsi],0x1
000041A9  4883C608          add rsi,byte +0x8
000041AD  803E00            cmp byte [rsi],0x0
000041B0  75ED              jnz 0x419f
000041B2  800601            add byte [rsi],0x1
000041B5  4883EE08          sub rsi,byte +0x8
000041B9  803E00            cmp byte [rsi],0x0
000041BC  0F849B000000      jz near 0x425d
000041C2  802E01            sub byte [rsi],0x1
000041C5  4883C608          add rsi,byte +0x8
000041C9  802E01            sub byte [rsi],0x1
000041CC  4883EE02          sub rsi,byte +0x2
000041D0  803E00            cmp byte [rsi],0x0
000041D3  7413              jz 0x41e8
000041D5  802E01            sub byte [rsi],0x1
000041D8  4883EE06          sub rsi,byte +0x6
000041DC  800601            add byte [rsi],0x1
000041DF  4883C606          add rsi,byte +0x6
000041E3  803E00            cmp byte [rsi],0x0
000041E6  75ED              jnz 0x41d5
000041E8  4883EE06          sub rsi,byte +0x6
000041EC  803E00            cmp byte [rsi],0x0
000041EF  0F845F000000      jz near 0x4254
000041F5  802E01            sub byte [rsi],0x1
000041F8  4883C606          add rsi,byte +0x6
000041FC  800601            add byte [rsi],0x1
000041FF  4883EE0F          sub rsi,byte +0xf
00004203  803E00            cmp byte [rsi],0x0
00004206  7409              jz 0x4211
00004208  4883EE09          sub rsi,byte +0x9
0000420C  803E00            cmp byte [rsi],0x0
0000420F  75F7              jnz 0x4208
00004211  4883C603          add rsi,byte +0x3
00004215  803E00            cmp byte [rsi],0x0
00004218  7408              jz 0x4222
0000421A  802E01            sub byte [rsi],0x1
0000421D  803E00            cmp byte [rsi],0x0
00004220  75F8              jnz 0x421a
00004222  800601            add byte [rsi],0x1
00004225  4883C606          add rsi,byte +0x6
00004229  803E00            cmp byte [rsi],0x0
0000422C  7409              jz 0x4237
0000422E  4883C609          add rsi,byte +0x9
00004232  803E00            cmp byte [rsi],0x0
00004235  75F7              jnz 0x422e
00004237  4883C601          add rsi,byte +0x1
0000423B  803E00            cmp byte [rsi],0x0
0000423E  7408              jz 0x4248
00004240  802E01            sub byte [rsi],0x1
00004243  803E00            cmp byte [rsi],0x0
00004246  75F8              jnz 0x4240
00004248  800601            add byte [rsi],0x1
0000424B  4883EE01          sub rsi,byte +0x1
0000424F  803E00            cmp byte [rsi],0x0
00004252  75A1              jnz 0x41f5
00004254  803E00            cmp byte [rsi],0x0
00004257  0F8565FFFFFF      jnz near 0x41c2
0000425D  800601            add byte [rsi],0x1
00004260  4883C601          add rsi,byte +0x1
00004264  803E00            cmp byte [rsi],0x0
00004267  741E              jz 0x4287
00004269  802E01            sub byte [rsi],0x1
0000426C  4883EE01          sub rsi,byte +0x1
00004270  803E00            cmp byte [rsi],0x0
00004273  7409              jz 0x427e
00004275  4883C609          add rsi,byte +0x9
00004279  803E00            cmp byte [rsi],0x0
0000427C  75F7              jnz 0x4275
0000427E  4883EE08          sub rsi,byte +0x8
00004282  803E00            cmp byte [rsi],0x0
00004285  75E2              jnz 0x4269
00004287  4883C608          add rsi,byte +0x8
0000428B  803E00            cmp byte [rsi],0x0
0000428E  0F8549FEFFFF      jnz near 0x40dd
00004294  4883EE09          sub rsi,byte +0x9
00004298  803E00            cmp byte [rsi],0x0
0000429B  7409              jz 0x42a6
0000429D  4883EE09          sub rsi,byte +0x9
000042A1  803E00            cmp byte [rsi],0x0
000042A4  75F7              jnz 0x429d
000042A6  4883C604          add rsi,byte +0x4
000042AA  803E00            cmp byte [rsi],0x0
000042AD  7408              jz 0x42b7
000042AF  802E01            sub byte [rsi],0x1
000042B2  803E00            cmp byte [rsi],0x0
000042B5  75F8              jnz 0x42af
000042B7  4883EE03          sub rsi,byte +0x3
000042BB  800605            add byte [rsi],0x5
000042BE  803E00            cmp byte [rsi],0x0
000042C1  7424              jz 0x42e7
000042C3  802E01            sub byte [rsi],0x1
000042C6  803E00            cmp byte [rsi],0x0
000042C9  7413              jz 0x42de
000042CB  802E01            sub byte [rsi],0x1
000042CE  4883C609          add rsi,byte +0x9
000042D2  800601            add byte [rsi],0x1
000042D5  4883EE09          sub rsi,byte +0x9
000042D9  803E00            cmp byte [rsi],0x0
000042DC  75ED              jnz 0x42cb
000042DE  4883C609          add rsi,byte +0x9
000042E2  803E00            cmp byte [rsi],0x0
000042E5  75DC              jnz 0x42c3
000042E7  4883C605          add rsi,byte +0x5
000042EB  802E01            sub byte [rsi],0x1
000042EE  4883C61B          add rsi,byte +0x1b
000042F2  802E01            sub byte [rsi],0x1
000042F5  4883EE06          sub rsi,byte +0x6
000042F9  803E00            cmp byte [rsi],0x0
000042FC  7409              jz 0x4307
000042FE  4883EE09          sub rsi,byte +0x9
00004302  803E00            cmp byte [rsi],0x0
00004305  75F7              jnz 0x42fe
00004307  803E00            cmp byte [rsi],0x0
0000430A  0F8584FCFFFF      jnz near 0x3f94
00004310  4883C603          add rsi,byte +0x3
00004314  803E00            cmp byte [rsi],0x0
00004317  0F85F0BCFFFF      jnz near 0xd
0000431D  C3                ret
